---
triple:          'arm64-apple-darwin'
binary-path:     program
relocations:
  - { offsetInCU: 0xA29E, offset: 0xA29E, size: 0x8, addend: 0x0, symName: __ZNSt3__1eqB7v160006INS_9allocatorIcEEEEbRKNS_12basic_stringIcNS_11char_traitsIcEET_EES9_, symObjAddr: 0xDC4, symBinAddr: 0x100002224, symSize: 0x148 }
  - { offsetInCU: 0xA32D, offset: 0xA32D, size: 0x8, addend: 0x0, symName: __ZNSt3__119__debug_db_insert_cB7v160006INS_12basic_stringIcNS_11char_traitsIcEENS_9allocatorIcEEEEEEvPT_, symObjAddr: 0x1F90, symBinAddr: 0x1000033F0, symSize: 0x10 }
  - { offsetInCU: 0xA35E, offset: 0xA35E, size: 0x8, addend: 0x0, symName: __ZNSt3__130__libcpp_is_constant_evaluatedB7v160006Ev, symObjAddr: 0x2130, symBinAddr: 0x100003590, symSize: 0xC }
  - { offsetInCU: 0xA37B, offset: 0xA37B, size: 0x8, addend: 0x0, symName: __ZNSt3__117__libcpp_allocateB7v160006Emm, symObjAddr: 0x2428, symBinAddr: 0x100003888, symSize: 0x28 }
  - { offsetInCU: 0xA3B8, offset: 0xA3B8, size: 0x8, addend: 0x0, symName: __ZNSt3__121__libcpp_operator_newB7v160006IJmEEEPvDpT_, symObjAddr: 0x2464, symBinAddr: 0x1000038C4, symSize: 0x24 }
  - { offsetInCU: 0xA3F1, offset: 0xA3F1, size: 0x8, addend: 0x0, symName: __ZNSt3__119__debug_db_insert_cB7v160006INS_6vectorI8EmployeeNS_9allocatorIS2_EEEEEEvPT_, symObjAddr: 0x2548, symBinAddr: 0x1000039A8, symSize: 0x10 }
  - { offsetInCU: 0xA422, offset: 0xA422, size: 0x8, addend: 0x0, symName: __ZNSt3__119__debug_db_insert_cB7v160006INS_6vectorI10ProgrammerNS_9allocatorIS2_EEEEEEvPT_, symObjAddr: 0x26A8, symBinAddr: 0x100003B08, symSize: 0x10 }
  - { offsetInCU: 0xA453, offset: 0xA453, size: 0x8, addend: 0x0, symName: __ZNSt3__119__debug_db_insert_cB7v160006INS_6vectorI17SoftwareArchitectNS_9allocatorIS2_EEEEEEvPT_, symObjAddr: 0x2808, symBinAddr: 0x100003C68, symSize: 0x10 }
  - { offsetInCU: 0xA484, offset: 0xA484, size: 0x8, addend: 0x0, symName: __ZNSt3__120__throw_out_of_rangeB7v160006EPKc, symObjAddr: 0x28FC, symBinAddr: 0x100003D5C, symSize: 0x64 }
  - { offsetInCU: 0xA4AE, offset: 0xA4AE, size: 0x8, addend: 0x0, symName: __ZNSt3__119__debug_db_insert_cB7v160006INS_6vectorIP8EmployeeNS_9allocatorIS3_EEEEEEvPT_, symObjAddr: 0x2AA0, symBinAddr: 0x100003F00, symSize: 0x10 }
  - { offsetInCU: 0xA4DF, offset: 0xA4DF, size: 0x8, addend: 0x0, symName: __ZNSt3__112__to_addressB7v160006IP8EmployeeEEPT_S4_, symObjAddr: 0x2DE8, symBinAddr: 0x100004248, symSize: 0x14 }
  - { offsetInCU: 0xA514, offset: 0xA514, size: 0x8, addend: 0x0, symName: __ZNSt3__13maxB7v160006ImEERKT_S3_S3_, symObjAddr: 0x3220, symBinAddr: 0x100004680, symSize: 0x2C }
  - { offsetInCU: 0xA557, offset: 0xA557, size: 0x8, addend: 0x0, symName: __ZNSt3__13minB7v160006ImEERKT_S3_S3_, symObjAddr: 0x324C, symBinAddr: 0x1000046AC, symSize: 0x2C }
  - { offsetInCU: 0xA79B, offset: 0xA79B, size: 0x8, addend: 0x0, symName: __ZNSt3__13minB7v160006ImNS_6__lessImmEEEERKT_S5_S5_T0_, symObjAddr: 0x32D8, symBinAddr: 0x100004738, symSize: 0x54 }
  - { offsetInCU: 0xA830, offset: 0xA830, size: 0x8, addend: 0x0, symName: __ZNSt3__120__throw_length_errorB7v160006EPKc, symObjAddr: 0x33B4, symBinAddr: 0x100004814, symSize: 0x64 }
  - { offsetInCU: 0xA858, offset: 0xA858, size: 0x8, addend: 0x0, symName: __ZNSt3__13maxB7v160006ImNS_6__lessImmEEEERKT_S5_S5_T0_, symObjAddr: 0x34F8, symBinAddr: 0x100004958, symSize: 0x54 }
  - { offsetInCU: 0xA8B2, offset: 0xA8B2, size: 0x8, addend: 0x0, symName: __ZNSt3__119__allocate_at_leastB7v160006INS_9allocatorIP8EmployeeEEEENS_19__allocation_resultINS_16allocator_traitsIT_E7pointerEEERS7_m, symObjAddr: 0x365C, symBinAddr: 0x100004ABC, symSize: 0x40 }
  - { offsetInCU: 0xA8F5, offset: 0xA8F5, size: 0x8, addend: 0x0, symName: __ZNSt3__142__uninitialized_allocator_move_if_noexceptB7v160006INS_9allocatorIP8EmployeeEENS_16reverse_iteratorIPS3_EES7_S3_vEET1_RT_T0_SB_S8_, symObjAddr: 0x38F4, symBinAddr: 0x100004D54, symSize: 0xE8 }
  - { offsetInCU: 0xA972, offset: 0xA972, size: 0x8, addend: 0x0, symName: __ZNSt3__14swapB7v160006IPP8EmployeeEEvRT_S5_, symObjAddr: 0x3A28, symBinAddr: 0x100004E88, symSize: 0x3C }
  - { offsetInCU: 0xA9C3, offset: 0xA9C3, size: 0x8, addend: 0x0, symName: __ZNSt3__125__debug_db_invalidate_allB7v160006INS_6vectorIP8EmployeeNS_9allocatorIS3_EEEEEEvPT_, symObjAddr: 0x3B10, symBinAddr: 0x100004F70, symSize: 0x10 }
  - { offsetInCU: 0xA9F4, offset: 0xA9F4, size: 0x8, addend: 0x0, symName: __ZNSt3__1neB7v160006IPP8EmployeeS3_EEbRKNS_16reverse_iteratorIT_EERKNS4_IT0_EE, symObjAddr: 0x3B68, symBinAddr: 0x100004FC8, symSize: 0x48 }
  - { offsetInCU: 0xAA65, offset: 0xAA65, size: 0x8, addend: 0x0, symName: __ZNSt3__114__construct_atB7v160006IP8EmployeeJS2_EPS2_EEPT_S5_DpOT0_, symObjAddr: 0x3BB0, symBinAddr: 0x100005010, symSize: 0x2C }
  - { offsetInCU: 0xAAD5, offset: 0xAAD5, size: 0x8, addend: 0x0, symName: __ZNSt3__112__to_addressB7v160006INS_16reverse_iteratorIPP8EmployeeEEvEENS_5decayIDTclsr19__to_address_helperIT_EE6__callclsr3stdE7declvalIRKS7_EEEEE4typeES9_, symObjAddr: 0x3BDC, symBinAddr: 0x10000503C, symSize: 0x24 }
  - { offsetInCU: 0xAB0B, offset: 0xAB0B, size: 0x8, addend: 0x0, symName: __ZNSt3__14moveB7v160006INS_16reverse_iteratorIPP8EmployeeEES5_EET0_T_S7_S6_, symObjAddr: 0x3C48, symBinAddr: 0x1000050A8, symSize: 0x78 }
  - { offsetInCU: 0xAB8E, offset: 0xAB8E, size: 0x8, addend: 0x0, symName: __ZNSt3__16__moveB7v160006INS_17_ClassicAlgPolicyENS_16reverse_iteratorIPP8EmployeeEES6_S6_EENS_4pairIT0_T2_EES8_T1_S9_, symObjAddr: 0x3D30, symBinAddr: 0x100005190, symSize: 0x64 }
  - { offsetInCU: 0xABFA, offset: 0xABFA, size: 0x8, addend: 0x0, symName: __ZNSt3__123__dispatch_copy_or_moveB7v160006INS_17_ClassicAlgPolicyENS_11__move_loopIS1_EENS_14__move_trivialENS_16reverse_iteratorIPP8EmployeeEES9_S9_EENS_4pairIT2_T4_EESB_T3_SC_, symObjAddr: 0x3D94, symBinAddr: 0x1000051F4, symSize: 0x7C }
  - { offsetInCU: 0xAC78, offset: 0xAC78, size: 0x8, addend: 0x0, symName: __ZNSt3__121__unwrap_and_dispatchB7v160006INS_10__overloadINS_11__move_loopINS_17_ClassicAlgPolicyEEENS_14__move_trivialEEENS_16reverse_iteratorIPP8EmployeeEESB_SB_Li0EEENS_4pairIT0_T2_EESD_T1_SE_, symObjAddr: 0x3E10, symBinAddr: 0x100005270, symSize: 0x12C }
  - { offsetInCU: 0xAD08, offset: 0xAD08, size: 0x8, addend: 0x0, symName: __ZNSt3__114__unwrap_rangeB7v160006INS_16reverse_iteratorIPP8EmployeeEES5_EENS_4pairIT0_S7_EET_S9_, symObjAddr: 0x3F3C, symBinAddr: 0x10000539C, symSize: 0x84 }
  - { offsetInCU: 0xAF58, offset: 0xAF58, size: 0x8, addend: 0x0, symName: __ZNSt3__113__unwrap_iterB7v160006INS_16reverse_iteratorIPP8EmployeeEENS_18__unwrap_iter_implIS5_Lb0EEELi0EEEDTclsrT0_8__unwrapclsr3stdE7declvalIT_EEEES9_, symObjAddr: 0x4060, symBinAddr: 0x1000054C0, symSize: 0x44 }
  - { offsetInCU: 0xAF9C, offset: 0xAF9C, size: 0x8, addend: 0x0, symName: __ZNSt3__19make_pairB7v160006INS_16reverse_iteratorIPP8EmployeeEES5_EENS_4pairINS_18__unwrap_ref_decayIT_E4typeENS7_IT0_E4typeEEEOS8_OSB_, symObjAddr: 0x40A4, symBinAddr: 0x100005504, symSize: 0x38 }
  - { offsetInCU: 0xAFEB, offset: 0xAFEB, size: 0x8, addend: 0x0, symName: __ZNSt3__114__rewrap_rangeB7v160006INS_16reverse_iteratorIPP8EmployeeEES5_EET_S6_T0_, symObjAddr: 0x40DC, symBinAddr: 0x10000553C, symSize: 0x5C }
  - { offsetInCU: 0xB037, offset: 0xB037, size: 0x8, addend: 0x0, symName: __ZNSt3__113__rewrap_iterB7v160006INS_16reverse_iteratorIPP8EmployeeEES5_NS_18__unwrap_iter_implIS5_Lb0EEEEET_S8_T0_, symObjAddr: 0x4138, symBinAddr: 0x100005598, symSize: 0x88 }
  - { offsetInCU: 0xB20A, offset: 0xB20A, size: 0x8, addend: 0x0, symName: __ZNSt3__119__libcpp_deallocateB7v160006EPvmm, symObjAddr: 0x4560, symBinAddr: 0x1000059C0, symSize: 0x30 }
  - { offsetInCU: 0xB252, offset: 0xB252, size: 0x8, addend: 0x0, symName: __ZNSt3__127__do_deallocate_handle_sizeB7v160006IJEEEvPvmDpT_, symObjAddr: 0x4590, symBinAddr: 0x1000059F0, symSize: 0x28 }
  - { offsetInCU: 0xB290, offset: 0xB290, size: 0x8, addend: 0x0, symName: __ZNSt3__124__libcpp_operator_deleteB7v160006IJPvEEEvDpT_, symObjAddr: 0x45B8, symBinAddr: 0x100005A18, symSize: 0x24 }
  - { offsetInCU: 0xB2C5, offset: 0xB2C5, size: 0x8, addend: 0x0, symName: __ZNSt3__112__to_addressB7v160006IKcEEPT_S3_, symObjAddr: 0x482C, symBinAddr: 0x100005C8C, symSize: 0x14 }
  - { offsetInCU: 0xB32D, offset: 0xB32D, size: 0x8, addend: 0x0, symName: __ZNSt3__118__constexpr_memcmpB7v160006IcEEiPKT_S3_m, symObjAddr: 0x48F8, symBinAddr: 0x100005D58, symSize: 0x34 }
  - { offsetInCU: 0xB37E, offset: 0xB37E, size: 0x8, addend: 0x0, symName: __ZNSt3__112__to_addressB7v160006I10ProgrammerEEPT_S3_, symObjAddr: 0x4B9C, symBinAddr: 0x100005FFC, symSize: 0x14 }
  - { offsetInCU: 0xB3B3, offset: 0xB3B3, size: 0x8, addend: 0x0, symName: __ZNSt3__119__allocate_at_leastB7v160006INS_9allocatorI10ProgrammerEEEENS_19__allocation_resultINS_16allocator_traitsIT_E7pointerEEERS6_m, symObjAddr: 0x51DC, symBinAddr: 0x10000663C, symSize: 0x40 }
  - { offsetInCU: 0xB3F6, offset: 0xB3F6, size: 0x8, addend: 0x0, symName: __ZNSt3__142__uninitialized_allocator_move_if_noexceptB7v160006INS_9allocatorI10ProgrammerEENS_16reverse_iteratorIPS2_EES6_S6_EET2_RT_T0_T1_S7_, symObjAddr: 0x5498, symBinAddr: 0x1000068F8, symSize: 0x134 }
  - { offsetInCU: 0xB496, offset: 0xB496, size: 0x8, addend: 0x0, symName: __ZNSt3__14swapB7v160006IP10ProgrammerEEvRT_S4_, symObjAddr: 0x5618, symBinAddr: 0x100006A78, symSize: 0x3C }
  - { offsetInCU: 0xB4E7, offset: 0xB4E7, size: 0x8, addend: 0x0, symName: __ZNSt3__125__debug_db_invalidate_allB7v160006INS_6vectorI10ProgrammerNS_9allocatorIS2_EEEEEEvPT_, symObjAddr: 0x571C, symBinAddr: 0x100006B7C, symSize: 0x10 }
  - { offsetInCU: 0xB518, offset: 0xB518, size: 0x8, addend: 0x0, symName: __ZNSt3__122__make_exception_guardB7v160006INS_29_AllocatorDestroyRangeReverseINS_9allocatorI10ProgrammerEENS_16reverse_iteratorIPS3_EEEEEENS_28__exception_guard_exceptionsIT_EESA_, symObjAddr: 0x5774, symBinAddr: 0x100006BD4, symSize: 0x4C }
  - { offsetInCU: 0xB54E, offset: 0xB54E, size: 0x8, addend: 0x0, symName: __ZNSt3__1neB7v160006IP10ProgrammerS2_EEbRKNS_16reverse_iteratorIT_EERKNS3_IT0_EE, symObjAddr: 0x5804, symBinAddr: 0x100006C64, symSize: 0x48 }
  - { offsetInCU: 0xB59A, offset: 0xB59A, size: 0x8, addend: 0x0, symName: __ZNSt3__112__to_addressB7v160006INS_16reverse_iteratorIP10ProgrammerEEvEENS_5decayIDTclsr19__to_address_helperIT_EE6__callclsr3stdE7declvalIRKS6_EEEEE4typeES8_, symObjAddr: 0x584C, symBinAddr: 0x100006CAC, symSize: 0x24 }
  - { offsetInCU: 0xB5F9, offset: 0xB5F9, size: 0x8, addend: 0x0, symName: __ZNSt3__119__allocator_destroyB7v160006INS_9allocatorI10ProgrammerEENS_16reverse_iteratorINS4_IPS2_EEEES7_EEvRT_T0_T1_, symObjAddr: 0x5B08, symBinAddr: 0x100006F68, symSize: 0x70 }
  - { offsetInCU: 0xB65E, offset: 0xB65E, size: 0x8, addend: 0x0, symName: __ZNSt3__1neB7v160006INS_16reverse_iteratorIP10ProgrammerEES4_EEbRKNS1_IT_EERKNS1_IT0_EE, symObjAddr: 0x5BB4, symBinAddr: 0x100007014, symSize: 0x60 }
  - { offsetInCU: 0xB6AA, offset: 0xB6AA, size: 0x8, addend: 0x0, symName: __ZNSt3__112__to_addressB7v160006INS_16reverse_iteratorINS1_IP10ProgrammerEEEEvEENS_5decayIDTclsr19__to_address_helperIT_EE6__callclsr3stdE7declvalIRKS7_EEEEE4typeES9_, symObjAddr: 0x5C40, symBinAddr: 0x1000070A0, symSize: 0x24 }
  - { offsetInCU: 0xB709, offset: 0xB709, size: 0x8, addend: 0x0, symName: __ZNSt3__1miB7v160006IPK8EmployeeS3_EENS_11__wrap_iterIT_E15difference_typeERKS6_RKNS4_IT0_EE, symObjAddr: 0x6158, symBinAddr: 0x1000075B8, symSize: 0x48 }
  - { offsetInCU: 0xB755, offset: 0xB755, size: 0x8, addend: 0x0, symName: __ZNSt3__14moveB7v160006IP8EmployeeS2_EET0_T_S4_S3_, symObjAddr: 0x6254, symBinAddr: 0x1000076B4, symSize: 0x40 }
  - { offsetInCU: 0xB7AF, offset: 0xB7AF, size: 0x8, addend: 0x0, symName: __ZNSt3__112__to_addressB7v160006I8EmployeeEEPT_S3_, symObjAddr: 0x6548, symBinAddr: 0x1000079A8, symSize: 0x14 }
  - { offsetInCU: 0xB7E4, offset: 0xB7E4, size: 0x8, addend: 0x0, symName: __ZNSt3__16__moveB7v160006INS_17_ClassicAlgPolicyEP8EmployeeS3_S3_EENS_4pairIT0_T2_EES5_T1_S6_, symObjAddr: 0x66D0, symBinAddr: 0x100007B30, symSize: 0x44 }
  - { offsetInCU: 0xB850, offset: 0xB850, size: 0x8, addend: 0x0, symName: __ZNSt3__123__dispatch_copy_or_moveB7v160006INS_17_ClassicAlgPolicyENS_11__move_loopIS1_EENS_14__move_trivialEP8EmployeeS6_S6_EENS_4pairIT2_T4_EES8_T3_S9_, symObjAddr: 0x6714, symBinAddr: 0x100007B74, symSize: 0x70 }
  - { offsetInCU: 0xB8CE, offset: 0xB8CE, size: 0x8, addend: 0x0, symName: __ZNSt3__121__unwrap_and_dispatchB7v160006INS_11__move_loopINS_17_ClassicAlgPolicyEEEP8EmployeeS5_S5_Li0EEENS_4pairIT0_T2_EES7_T1_S8_, symObjAddr: 0x6784, symBinAddr: 0x100007BE4, symSize: 0xB4 }
  - { offsetInCU: 0xB95C, offset: 0xB95C, size: 0x8, addend: 0x0, symName: __ZNSt3__121__unwrap_and_dispatchB7v160006INS_10__overloadINS_11__move_loopINS_17_ClassicAlgPolicyEEENS_14__move_trivialEEEP8EmployeeS8_S8_Li0EEENS_4pairIT0_T2_EESA_T1_SB_, symObjAddr: 0x6838, symBinAddr: 0x100007C98, symSize: 0xB4 }
  - { offsetInCU: 0xB9EA, offset: 0xB9EA, size: 0x8, addend: 0x0, symName: __ZNSt3__114__unwrap_rangeB7v160006IP8EmployeeS2_EENS_4pairIT0_S4_EET_S6_, symObjAddr: 0x68EC, symBinAddr: 0x100007D4C, symSize: 0x60 }
  - { offsetInCU: 0xBAE3, offset: 0xBAE3, size: 0x8, addend: 0x0, symName: __ZNSt3__113__unwrap_iterB7v160006IP8EmployeeNS_18__unwrap_iter_implIS2_Lb1EEELi0EEEDTclsrT0_8__unwrapclsr3stdE7declvalIT_EEEES6_, symObjAddr: 0x69DC, symBinAddr: 0x100007E3C, symSize: 0x24 }
  - { offsetInCU: 0xBB27, offset: 0xBB27, size: 0x8, addend: 0x0, symName: __ZNSt3__19make_pairB7v160006IP8EmployeeS2_EENS_4pairINS_18__unwrap_ref_decayIT_E4typeENS4_IT0_E4typeEEEOS5_OS8_, symObjAddr: 0x6A00, symBinAddr: 0x100007E60, symSize: 0x38 }
  - { offsetInCU: 0xBB76, offset: 0xBB76, size: 0x8, addend: 0x0, symName: __ZNSt3__114__rewrap_rangeB7v160006IP8EmployeeS2_EET_S3_T0_, symObjAddr: 0x6A38, symBinAddr: 0x100007E98, symSize: 0x2C }
  - { offsetInCU: 0xBBC2, offset: 0xBBC2, size: 0x8, addend: 0x0, symName: __ZNSt3__113__rewrap_iterB7v160006IP8EmployeeS2_NS_18__unwrap_iter_implIS2_Lb1EEEEET_S5_T0_, symObjAddr: 0x6A64, symBinAddr: 0x100007EC4, symSize: 0x50 }
  - { offsetInCU: 0xBC8E, offset: 0xBC8E, size: 0x8, addend: 0x0, symName: __ZNSt3__1miB7v160006IPK10ProgrammerS3_EENS_11__wrap_iterIT_E15difference_typeERKS6_RKNS4_IT0_EE, symObjAddr: 0x6D74, symBinAddr: 0x1000081D4, symSize: 0x48 }
  - { offsetInCU: 0xBCDA, offset: 0xBCDA, size: 0x8, addend: 0x0, symName: __ZNSt3__14moveB7v160006IP10ProgrammerS2_EET0_T_S4_S3_, symObjAddr: 0x6E70, symBinAddr: 0x1000082D0, symSize: 0x40 }
  - { offsetInCU: 0xBD34, offset: 0xBD34, size: 0x8, addend: 0x0, symName: __ZNSt3__16__moveB7v160006INS_17_ClassicAlgPolicyEP10ProgrammerS3_S3_EENS_4pairIT0_T2_EES5_T1_S6_, symObjAddr: 0x7110, symBinAddr: 0x100008570, symSize: 0x44 }
  - { offsetInCU: 0xBDA0, offset: 0xBDA0, size: 0x8, addend: 0x0, symName: __ZNSt3__123__dispatch_copy_or_moveB7v160006INS_17_ClassicAlgPolicyENS_11__move_loopIS1_EENS_14__move_trivialEP10ProgrammerS6_S6_EENS_4pairIT2_T4_EES8_T3_S9_, symObjAddr: 0x7154, symBinAddr: 0x1000085B4, symSize: 0x70 }
  - { offsetInCU: 0xBE1E, offset: 0xBE1E, size: 0x8, addend: 0x0, symName: __ZNSt3__121__unwrap_and_dispatchB7v160006INS_11__move_loopINS_17_ClassicAlgPolicyEEEP10ProgrammerS5_S5_Li0EEENS_4pairIT0_T2_EES7_T1_S8_, symObjAddr: 0x71C4, symBinAddr: 0x100008624, symSize: 0xB4 }
  - { offsetInCU: 0xBEAC, offset: 0xBEAC, size: 0x8, addend: 0x0, symName: __ZNSt3__121__unwrap_and_dispatchB7v160006INS_10__overloadINS_11__move_loopINS_17_ClassicAlgPolicyEEENS_14__move_trivialEEEP10ProgrammerS8_S8_Li0EEENS_4pairIT0_T2_EESA_T1_SB_, symObjAddr: 0x7278, symBinAddr: 0x1000086D8, symSize: 0xB4 }
  - { offsetInCU: 0xBF3A, offset: 0xBF3A, size: 0x8, addend: 0x0, symName: __ZNSt3__114__unwrap_rangeB7v160006IP10ProgrammerS2_EENS_4pairIT0_S4_EET_S6_, symObjAddr: 0x732C, symBinAddr: 0x10000878C, symSize: 0x60 }
  - { offsetInCU: 0xC033, offset: 0xC033, size: 0x8, addend: 0x0, symName: __ZNSt3__113__unwrap_iterB7v160006IP10ProgrammerNS_18__unwrap_iter_implIS2_Lb1EEELi0EEEDTclsrT0_8__unwrapclsr3stdE7declvalIT_EEEES6_, symObjAddr: 0x741C, symBinAddr: 0x10000887C, symSize: 0x24 }
  - { offsetInCU: 0xC077, offset: 0xC077, size: 0x8, addend: 0x0, symName: __ZNSt3__19make_pairB7v160006IP10ProgrammerS2_EENS_4pairINS_18__unwrap_ref_decayIT_E4typeENS4_IT0_E4typeEEEOS5_OS8_, symObjAddr: 0x7440, symBinAddr: 0x1000088A0, symSize: 0x38 }
  - { offsetInCU: 0xC0C6, offset: 0xC0C6, size: 0x8, addend: 0x0, symName: __ZNSt3__114__rewrap_rangeB7v160006IP10ProgrammerS2_EET_S3_T0_, symObjAddr: 0x7478, symBinAddr: 0x1000088D8, symSize: 0x2C }
  - { offsetInCU: 0xC112, offset: 0xC112, size: 0x8, addend: 0x0, symName: __ZNSt3__113__rewrap_iterB7v160006IP10ProgrammerS2_NS_18__unwrap_iter_implIS2_Lb1EEEEET_S5_T0_, symObjAddr: 0x74A4, symBinAddr: 0x100008904, symSize: 0x50 }
  - { offsetInCU: 0xC1DE, offset: 0xC1DE, size: 0x8, addend: 0x0, symName: __ZNSt3__1miB7v160006IPK17SoftwareArchitectS3_EENS_11__wrap_iterIT_E15difference_typeERKS6_RKNS4_IT0_EE, symObjAddr: 0x7790, symBinAddr: 0x100008BF0, symSize: 0x48 }
  - { offsetInCU: 0xC22A, offset: 0xC22A, size: 0x8, addend: 0x0, symName: __ZNSt3__14moveB7v160006IP17SoftwareArchitectS2_EET0_T_S4_S3_, symObjAddr: 0x788C, symBinAddr: 0x100008CEC, symSize: 0x40 }
  - { offsetInCU: 0xC284, offset: 0xC284, size: 0x8, addend: 0x0, symName: __ZNSt3__112__to_addressB7v160006I17SoftwareArchitectEEPT_S3_, symObjAddr: 0x7B80, symBinAddr: 0x100008FE0, symSize: 0x14 }
  - { offsetInCU: 0xC2B9, offset: 0xC2B9, size: 0x8, addend: 0x0, symName: __ZNSt3__16__moveB7v160006INS_17_ClassicAlgPolicyEP17SoftwareArchitectS3_S3_EENS_4pairIT0_T2_EES5_T1_S6_, symObjAddr: 0x7D80, symBinAddr: 0x1000091E0, symSize: 0x44 }
  - { offsetInCU: 0xC325, offset: 0xC325, size: 0x8, addend: 0x0, symName: __ZNSt3__123__dispatch_copy_or_moveB7v160006INS_17_ClassicAlgPolicyENS_11__move_loopIS1_EENS_14__move_trivialEP17SoftwareArchitectS6_S6_EENS_4pairIT2_T4_EES8_T3_S9_, symObjAddr: 0x7DC4, symBinAddr: 0x100009224, symSize: 0x70 }
  - { offsetInCU: 0xC3A3, offset: 0xC3A3, size: 0x8, addend: 0x0, symName: __ZNSt3__121__unwrap_and_dispatchB7v160006INS_11__move_loopINS_17_ClassicAlgPolicyEEEP17SoftwareArchitectS5_S5_Li0EEENS_4pairIT0_T2_EES7_T1_S8_, symObjAddr: 0x7E34, symBinAddr: 0x100009294, symSize: 0xB4 }
  - { offsetInCU: 0xC431, offset: 0xC431, size: 0x8, addend: 0x0, symName: __ZNSt3__121__unwrap_and_dispatchB7v160006INS_10__overloadINS_11__move_loopINS_17_ClassicAlgPolicyEEENS_14__move_trivialEEEP17SoftwareArchitectS8_S8_Li0EEENS_4pairIT0_T2_EESA_T1_SB_, symObjAddr: 0x7EE8, symBinAddr: 0x100009348, symSize: 0xB4 }
  - { offsetInCU: 0xC4BF, offset: 0xC4BF, size: 0x8, addend: 0x0, symName: __ZNSt3__114__unwrap_rangeB7v160006IP17SoftwareArchitectS2_EENS_4pairIT0_S4_EET_S6_, symObjAddr: 0x7F9C, symBinAddr: 0x1000093FC, symSize: 0x60 }
  - { offsetInCU: 0xC5B8, offset: 0xC5B8, size: 0x8, addend: 0x0, symName: __ZNSt3__113__unwrap_iterB7v160006IP17SoftwareArchitectNS_18__unwrap_iter_implIS2_Lb1EEELi0EEEDTclsrT0_8__unwrapclsr3stdE7declvalIT_EEEES6_, symObjAddr: 0x808C, symBinAddr: 0x1000094EC, symSize: 0x24 }
  - { offsetInCU: 0xC5FC, offset: 0xC5FC, size: 0x8, addend: 0x0, symName: __ZNSt3__19make_pairB7v160006IP17SoftwareArchitectS2_EENS_4pairINS_18__unwrap_ref_decayIT_E4typeENS4_IT0_E4typeEEEOS5_OS8_, symObjAddr: 0x80B0, symBinAddr: 0x100009510, symSize: 0x38 }
  - { offsetInCU: 0xC64B, offset: 0xC64B, size: 0x8, addend: 0x0, symName: __ZNSt3__114__rewrap_rangeB7v160006IP17SoftwareArchitectS2_EET_S3_T0_, symObjAddr: 0x80E8, symBinAddr: 0x100009548, symSize: 0x2C }
  - { offsetInCU: 0xC697, offset: 0xC697, size: 0x8, addend: 0x0, symName: __ZNSt3__113__rewrap_iterB7v160006IP17SoftwareArchitectS2_NS_18__unwrap_iter_implIS2_Lb1EEEEET_S5_T0_, symObjAddr: 0x8114, symBinAddr: 0x100009574, symSize: 0x50 }
  - { offsetInCU: 0xC763, offset: 0xC763, size: 0x8, addend: 0x0, symName: __ZNSt3__119__debug_db_insert_cB7v160006INS_6vectorIiNS_9allocatorIiEEEEEEvPT_, symObjAddr: 0x83B0, symBinAddr: 0x100009810, symSize: 0x10 }
  - { offsetInCU: 0xC794, offset: 0xC794, size: 0x8, addend: 0x0, symName: __ZNSt3__112__to_addressB7v160006IiEEPT_S2_, symObjAddr: 0x86F8, symBinAddr: 0x100009B58, symSize: 0x14 }
  - { offsetInCU: 0xC7C9, offset: 0xC7C9, size: 0x8, addend: 0x0, symName: __ZNSt3__119__allocate_at_leastB7v160006INS_9allocatorIiEEEENS_19__allocation_resultINS_16allocator_traitsIT_E7pointerEEERS5_m, symObjAddr: 0x8D10, symBinAddr: 0x10000A170, symSize: 0x40 }
  - { offsetInCU: 0xC80C, offset: 0xC80C, size: 0x8, addend: 0x0, symName: __ZNSt3__142__uninitialized_allocator_move_if_noexceptB7v160006INS_9allocatorIiEENS_16reverse_iteratorIPiEES5_ivEET1_RT_T0_S9_S6_, symObjAddr: 0x8FA8, symBinAddr: 0x10000A408, symSize: 0xE8 }
  - { offsetInCU: 0xC889, offset: 0xC889, size: 0x8, addend: 0x0, symName: __ZNSt3__14swapB7v160006IPiEEvRT_S3_, symObjAddr: 0x90DC, symBinAddr: 0x10000A53C, symSize: 0x3C }
  - { offsetInCU: 0xC8DA, offset: 0xC8DA, size: 0x8, addend: 0x0, symName: __ZNSt3__125__debug_db_invalidate_allB7v160006INS_6vectorIiNS_9allocatorIiEEEEEEvPT_, symObjAddr: 0x91C4, symBinAddr: 0x10000A624, symSize: 0x10 }
  - { offsetInCU: 0xC90B, offset: 0xC90B, size: 0x8, addend: 0x0, symName: __ZNSt3__1neB7v160006IPiS1_EEbRKNS_16reverse_iteratorIT_EERKNS2_IT0_EE, symObjAddr: 0x921C, symBinAddr: 0x10000A67C, symSize: 0x48 }
  - { offsetInCU: 0xC97C, offset: 0xC97C, size: 0x8, addend: 0x0, symName: __ZNSt3__114__construct_atB7v160006IiJiEPiEEPT_S3_DpOT0_, symObjAddr: 0x9264, symBinAddr: 0x10000A6C4, symSize: 0x2C }
  - { offsetInCU: 0xC9EC, offset: 0xC9EC, size: 0x8, addend: 0x0, symName: __ZNSt3__112__to_addressB7v160006INS_16reverse_iteratorIPiEEvEENS_5decayIDTclsr19__to_address_helperIT_EE6__callclsr3stdE7declvalIRKS5_EEEEE4typeES7_, symObjAddr: 0x9290, symBinAddr: 0x10000A6F0, symSize: 0x24 }
  - { offsetInCU: 0xCA22, offset: 0xCA22, size: 0x8, addend: 0x0, symName: __ZNSt3__14moveB7v160006INS_16reverse_iteratorIPiEES3_EET0_T_S5_S4_, symObjAddr: 0x92FC, symBinAddr: 0x10000A75C, symSize: 0x78 }
  - { offsetInCU: 0xCAA5, offset: 0xCAA5, size: 0x8, addend: 0x0, symName: __ZNSt3__16__moveB7v160006INS_17_ClassicAlgPolicyENS_16reverse_iteratorIPiEES4_S4_EENS_4pairIT0_T2_EES6_T1_S7_, symObjAddr: 0x93E4, symBinAddr: 0x10000A844, symSize: 0x64 }
  - { offsetInCU: 0xCB11, offset: 0xCB11, size: 0x8, addend: 0x0, symName: __ZNSt3__123__dispatch_copy_or_moveB7v160006INS_17_ClassicAlgPolicyENS_11__move_loopIS1_EENS_14__move_trivialENS_16reverse_iteratorIPiEES7_S7_EENS_4pairIT2_T4_EES9_T3_SA_, symObjAddr: 0x9448, symBinAddr: 0x10000A8A8, symSize: 0x7C }
  - { offsetInCU: 0xCB8F, offset: 0xCB8F, size: 0x8, addend: 0x0, symName: __ZNSt3__121__unwrap_and_dispatchB7v160006INS_10__overloadINS_11__move_loopINS_17_ClassicAlgPolicyEEENS_14__move_trivialEEENS_16reverse_iteratorIPiEES9_S9_Li0EEENS_4pairIT0_T2_EESB_T1_SC_, symObjAddr: 0x94C4, symBinAddr: 0x10000A924, symSize: 0x12C }
  - { offsetInCU: 0xCC1F, offset: 0xCC1F, size: 0x8, addend: 0x0, symName: __ZNSt3__114__unwrap_rangeB7v160006INS_16reverse_iteratorIPiEES3_EENS_4pairIT0_S5_EET_S7_, symObjAddr: 0x95F0, symBinAddr: 0x10000AA50, symSize: 0x84 }
  - { offsetInCU: 0xCD18, offset: 0xCD18, size: 0x8, addend: 0x0, symName: __ZNSt3__113__unwrap_iterB7v160006INS_16reverse_iteratorIPiEENS_18__unwrap_iter_implIS3_Lb0EEELi0EEEDTclsrT0_8__unwrapclsr3stdE7declvalIT_EEEES7_, symObjAddr: 0x9714, symBinAddr: 0x10000AB74, symSize: 0x44 }
  - { offsetInCU: 0xCD5C, offset: 0xCD5C, size: 0x8, addend: 0x0, symName: __ZNSt3__19make_pairB7v160006INS_16reverse_iteratorIPiEES3_EENS_4pairINS_18__unwrap_ref_decayIT_E4typeENS5_IT0_E4typeEEEOS6_OS9_, symObjAddr: 0x9758, symBinAddr: 0x10000ABB8, symSize: 0x38 }
  - { offsetInCU: 0xCDAB, offset: 0xCDAB, size: 0x8, addend: 0x0, symName: __ZNSt3__114__rewrap_rangeB7v160006INS_16reverse_iteratorIPiEES3_EET_S4_T0_, symObjAddr: 0x9790, symBinAddr: 0x10000ABF0, symSize: 0x5C }
  - { offsetInCU: 0xCDF7, offset: 0xCDF7, size: 0x8, addend: 0x0, symName: __ZNSt3__113__rewrap_iterB7v160006INS_16reverse_iteratorIPiEES3_NS_18__unwrap_iter_implIS3_Lb0EEEEET_S6_T0_, symObjAddr: 0x97EC, symBinAddr: 0x10000AC4C, symSize: 0x88 }
  - { offsetInCU: 0xCEB8, offset: 0xCEB8, size: 0x8, addend: 0x0, symName: __ZNSt3__118__debug_db_erase_cB7v160006INS_6vectorI8EmployeeNS_9allocatorIS2_EEEEEEvPT_, symObjAddr: 0x9E7C, symBinAddr: 0x10000B2DC, symSize: 0x10 }
  - { offsetInCU: 0xCEE9, offset: 0xCEE9, size: 0x8, addend: 0x0, symName: __ZNSt3__118__debug_db_erase_cB7v160006INS_6vectorI10ProgrammerNS_9allocatorIS2_EEEEEEvPT_, symObjAddr: 0xA088, symBinAddr: 0x10000B4E8, symSize: 0x10 }
  - { offsetInCU: 0xCF1A, offset: 0xCF1A, size: 0x8, addend: 0x0, symName: __ZNSt3__118__debug_db_erase_cB7v160006INS_6vectorI17SoftwareArchitectNS_9allocatorIS2_EEEEEEvPT_, symObjAddr: 0xA2C0, symBinAddr: 0x10000B720, symSize: 0x10 }
  - { offsetInCU: 0xD1F1, offset: 0xD1F1, size: 0x8, addend: 0x0, symName: __ZSt28__throw_bad_array_new_lengthB7v160006v, symObjAddr: 0x23F4, symBinAddr: 0x100003854, symSize: 0x34 }
  - { offsetInCU: 0xDE8C, offset: 0xDE8C, size: 0x8, addend: 0x0, symName: __ZNSt3__16vectorIP8EmployeeNS_9allocatorIS2_EEE26__swap_out_circular_bufferERNS_14__split_bufferIS2_RS4_EE, symObjAddr: 0x300C, symBinAddr: 0x10000446C, symSize: 0x118 }
  - { offsetInCU: 0xDEE1, offset: 0xDEE1, size: 0x8, addend: 0x0, symName: __ZNSt3__16vectorI10ProgrammerNS_9allocatorIS1_EEE26__swap_out_circular_bufferERNS_14__split_bufferIS1_RS3_EE, symObjAddr: 0x4DA8, symBinAddr: 0x100006208, symSize: 0x118 }
  - { offsetInCU: 0xDF72, offset: 0xDF72, size: 0x8, addend: 0x0, symName: __ZNSt3__16vectorIiNS_9allocatorIiEEE26__swap_out_circular_bufferERNS_14__split_bufferIiRS2_EE, symObjAddr: 0x88F4, symBinAddr: 0x100009D54, symSize: 0x118 }
  - { offsetInCU: 0x100DC, offset: 0x100DC, size: 0x8, addend: 0x0, symName: __ZN10DepartmentC2Ev, symObjAddr: 0x0, symBinAddr: 0x100001460, symSize: 0x138 }
  - { offsetInCU: 0x10106, offset: 0x10106, size: 0x8, addend: 0x0, symName: __ZNSt3__112basic_stringIcNS_11char_traitsIcEENS_9allocatorIcEEEC1B7v160006Ev, symObjAddr: 0x138, symBinAddr: 0x100001598, symSize: 0x2C }
  - { offsetInCU: 0x1012E, offset: 0x1012E, size: 0x8, addend: 0x0, symName: __ZNSt3__16vectorI8EmployeeNS_9allocatorIS1_EEEC1B7v160006Ev, symObjAddr: 0x164, symBinAddr: 0x1000015C4, symSize: 0x2C }
  - { offsetInCU: 0x10156, offset: 0x10156, size: 0x8, addend: 0x0, symName: __ZNSt3__16vectorI10ProgrammerNS_9allocatorIS1_EEEC1B7v160006Ev, symObjAddr: 0x190, symBinAddr: 0x1000015F0, symSize: 0x2C }
  - { offsetInCU: 0x1017E, offset: 0x1017E, size: 0x8, addend: 0x0, symName: __ZNSt3__16vectorI17SoftwareArchitectNS_9allocatorIS1_EEEC1B7v160006Ev, symObjAddr: 0x1BC, symBinAddr: 0x10000161C, symSize: 0x2C }
  - { offsetInCU: 0x101A6, offset: 0x101A6, size: 0x8, addend: 0x0, symName: __ZNSt3__112basic_stringIcNS_11char_traitsIcEENS_9allocatorIcEEEaSB7v160006EPKc, symObjAddr: 0x1E8, symBinAddr: 0x100001648, symSize: 0x2C }
  - { offsetInCU: 0x101DA, offset: 0x101DA, size: 0x8, addend: 0x0, symName: __ZN10DepartmentC1Ev, symObjAddr: 0x220, symBinAddr: 0x100001680, symSize: 0x2C }
  - { offsetInCU: 0x10204, offset: 0x10204, size: 0x8, addend: 0x0, symName: __ZN10DepartmentC2ENSt3__112basic_stringIcNS0_11char_traitsIcEENS0_9allocatorIcEEEEi, symObjAddr: 0x24C, symBinAddr: 0x1000016AC, symSize: 0x178 }
  - { offsetInCU: 0x1024B, offset: 0x1024B, size: 0x8, addend: 0x0, symName: __ZN10DepartmentC1ENSt3__112basic_stringIcNS0_11char_traitsIcEENS0_9allocatorIcEEEEi, symObjAddr: 0x3C4, symBinAddr: 0x100001824, symSize: 0x3C }
  - { offsetInCU: 0x10292, offset: 0x10292, size: 0x8, addend: 0x0, symName: __ZN10Department18CalculateMaxSalaryENS_10StaffTypesE, symObjAddr: 0x400, symBinAddr: 0x100001860, symSize: 0x25C }
  - { offsetInCU: 0x102E3, offset: 0x102E3, size: 0x8, addend: 0x0, symName: __ZNKSt3__16vectorI8EmployeeNS_9allocatorIS1_EEE4sizeB7v160006Ev, symObjAddr: 0x65C, symBinAddr: 0x100001ABC, symSize: 0x28 }
  - { offsetInCU: 0x10307, offset: 0x10307, size: 0x8, addend: 0x0, symName: __ZNSt3__16vectorI8EmployeeNS_9allocatorIS1_EEE2atEm, symObjAddr: 0x684, symBinAddr: 0x100001AE4, symSize: 0x68 }
  - { offsetInCU: 0x1033D, offset: 0x1033D, size: 0x8, addend: 0x0, symName: __ZNKSt3__16vectorI10ProgrammerNS_9allocatorIS1_EEE4sizeB7v160006Ev, symObjAddr: 0x6EC, symBinAddr: 0x100001B4C, symSize: 0x28 }
  - { offsetInCU: 0x10361, offset: 0x10361, size: 0x8, addend: 0x0, symName: __ZNSt3__16vectorI10ProgrammerNS_9allocatorIS1_EEE2atEm, symObjAddr: 0x714, symBinAddr: 0x100001B74, symSize: 0x68 }
  - { offsetInCU: 0x10397, offset: 0x10397, size: 0x8, addend: 0x0, symName: __ZNKSt3__16vectorI17SoftwareArchitectNS_9allocatorIS1_EEE4sizeB7v160006Ev, symObjAddr: 0x77C, symBinAddr: 0x100001BDC, symSize: 0x28 }
  - { offsetInCU: 0x103BB, offset: 0x103BB, size: 0x8, addend: 0x0, symName: __ZNSt3__16vectorI17SoftwareArchitectNS_9allocatorIS1_EEE2atEm, symObjAddr: 0x7A4, symBinAddr: 0x100001C04, symSize: 0x68 }
  - { offsetInCU: 0x103F1, offset: 0x103F1, size: 0x8, addend: 0x0, symName: __ZN10Department22CalculateAverageSalaryENS_10StaffTypesE, symObjAddr: 0x80C, symBinAddr: 0x100001C6C, symSize: 0x1DC }
  - { offsetInCU: 0x10442, offset: 0x10442, size: 0x8, addend: 0x0, symName: __ZN10Department11getAllStaffEv, symObjAddr: 0x9E8, symBinAddr: 0x100001E48, symSize: 0x1B8 }
  - { offsetInCU: 0x104CE, offset: 0x104CE, size: 0x8, addend: 0x0, symName: __ZNSt3__16vectorIP8EmployeeNS_9allocatorIS2_EEEC1B7v160006Ev, symObjAddr: 0xBA0, symBinAddr: 0x100002000, symSize: 0x2C }
  - { offsetInCU: 0x104F5, offset: 0x104F5, size: 0x8, addend: 0x0, symName: __ZNSt3__16vectorIP8EmployeeNS_9allocatorIS2_EEE9push_backB7v160006EOS2_, symObjAddr: 0xBCC, symBinAddr: 0x10000202C, symSize: 0x6C }
  - { offsetInCU: 0x1052B, offset: 0x1052B, size: 0x8, addend: 0x0, symName: __ZN10Department24getProgrammersByLanguageENSt3__112basic_stringIcNS0_11char_traitsIcEENS0_9allocatorIcEEEE, symObjAddr: 0xC38, symBinAddr: 0x100002098, symSize: 0x158 }
  - { offsetInCU: 0x1059A, offset: 0x1059A, size: 0x8, addend: 0x0, symName: __ZN10ProgrammerC1ERKS_, symObjAddr: 0xD90, symBinAddr: 0x1000021F0, symSize: 0x34 }
  - { offsetInCU: 0x105CC, offset: 0x105CC, size: 0x8, addend: 0x0, symName: __ZNSt3__16vectorI10ProgrammerNS_9allocatorIS1_EEE9push_backB7v160006ERKS1_, symObjAddr: 0xF0C, symBinAddr: 0x10000236C, symSize: 0x6C }
  - { offsetInCU: 0x10602, offset: 0x10602, size: 0x8, addend: 0x0, symName: __ZN10ProgrammerD1Ev, symObjAddr: 0xF78, symBinAddr: 0x1000023D8, symSize: 0x2C }
  - { offsetInCU: 0x1062C, offset: 0x1062C, size: 0x8, addend: 0x0, symName: __ZN10Department14RemoveEmployeeE8Employee, symObjAddr: 0xFA4, symBinAddr: 0x100002404, symSize: 0x298 }
  - { offsetInCU: 0x106B9, offset: 0x106B9, size: 0x8, addend: 0x0, symName: __ZNSt3__16vectorI8EmployeeNS_9allocatorIS1_EEE5eraseB7v160006ENS_11__wrap_iterIPKS1_EE, symObjAddr: 0x123C, symBinAddr: 0x10000269C, symSize: 0xBC }
  - { offsetInCU: 0x1070C, offset: 0x1070C, size: 0x8, addend: 0x0, symName: __ZNSt3__16vectorI8EmployeeNS_9allocatorIS1_EEE5beginB7v160006Ev, symObjAddr: 0x12F8, symBinAddr: 0x100002758, symSize: 0x30 }
  - { offsetInCU: 0x10733, offset: 0x10733, size: 0x8, addend: 0x0, symName: __ZNKSt3__111__wrap_iterIP8EmployeeEplB7v160006El, symObjAddr: 0x1328, symBinAddr: 0x100002788, symSize: 0x3C }
  - { offsetInCU: 0x1077E, offset: 0x1077E, size: 0x8, addend: 0x0, symName: __ZNSt3__111__wrap_iterIPK8EmployeeEC1B7v160006IPS1_EERKNS0_IT_EEPNS_9enable_ifIXsr14is_convertibleIS7_S3_EE5valueEvE4typeE, symObjAddr: 0x1364, symBinAddr: 0x1000027C4, symSize: 0x3C }
  - { offsetInCU: 0x107C7, offset: 0x107C7, size: 0x8, addend: 0x0, symName: __ZNSt3__16vectorI10ProgrammerNS_9allocatorIS1_EEE5eraseB7v160006ENS_11__wrap_iterIPKS1_EE, symObjAddr: 0x13A0, symBinAddr: 0x100002800, symSize: 0xBC }
  - { offsetInCU: 0x1081A, offset: 0x1081A, size: 0x8, addend: 0x0, symName: __ZNSt3__16vectorI10ProgrammerNS_9allocatorIS1_EEE5beginB7v160006Ev, symObjAddr: 0x145C, symBinAddr: 0x1000028BC, symSize: 0x30 }
  - { offsetInCU: 0x10841, offset: 0x10841, size: 0x8, addend: 0x0, symName: __ZNKSt3__111__wrap_iterIP10ProgrammerEplB7v160006El, symObjAddr: 0x148C, symBinAddr: 0x1000028EC, symSize: 0x3C }
  - { offsetInCU: 0x10887, offset: 0x10887, size: 0x8, addend: 0x0, symName: __ZNSt3__111__wrap_iterIPK10ProgrammerEC1B7v160006IPS1_EERKNS0_IT_EEPNS_9enable_ifIXsr14is_convertibleIS7_S3_EE5valueEvE4typeE, symObjAddr: 0x14C8, symBinAddr: 0x100002928, symSize: 0x3C }
  - { offsetInCU: 0x108D0, offset: 0x108D0, size: 0x8, addend: 0x0, symName: __ZNSt3__16vectorI17SoftwareArchitectNS_9allocatorIS1_EEE5eraseB7v160006ENS_11__wrap_iterIPKS1_EE, symObjAddr: 0x1504, symBinAddr: 0x100002964, symSize: 0xBC }
  - { offsetInCU: 0x10923, offset: 0x10923, size: 0x8, addend: 0x0, symName: __ZNSt3__16vectorI17SoftwareArchitectNS_9allocatorIS1_EEE5beginB7v160006Ev, symObjAddr: 0x15C0, symBinAddr: 0x100002A20, symSize: 0x30 }
  - { offsetInCU: 0x1094A, offset: 0x1094A, size: 0x8, addend: 0x0, symName: __ZNKSt3__111__wrap_iterIP17SoftwareArchitectEplB7v160006El, symObjAddr: 0x15F0, symBinAddr: 0x100002A50, symSize: 0x3C }
  - { offsetInCU: 0x10990, offset: 0x10990, size: 0x8, addend: 0x0, symName: __ZNSt3__111__wrap_iterIPK17SoftwareArchitectEC1B7v160006IPS1_EERKNS0_IT_EEPNS_9enable_ifIXsr14is_convertibleIS7_S3_EE5valueEvE4typeE, symObjAddr: 0x162C, symBinAddr: 0x100002A8C, symSize: 0x3C }
  - { offsetInCU: 0x109DA, offset: 0x109DA, size: 0x8, addend: 0x0, symName: __ZN10Department16getAllProjectIDsEv, symObjAddr: 0x1668, symBinAddr: 0x100002AC8, symSize: 0x1B8 }
  - { offsetInCU: 0x10A1D, offset: 0x10A1D, size: 0x8, addend: 0x0, symName: __ZNSt3__16vectorIiNS_9allocatorIiEEEC1B7v160006Ev, symObjAddr: 0x1820, symBinAddr: 0x100002C80, symSize: 0x2C }
  - { offsetInCU: 0x10A45, offset: 0x10A45, size: 0x8, addend: 0x0, symName: __ZN10Department7checkIDEiPNSt3__16vectorIiNS0_9allocatorIiEEEE, symObjAddr: 0x184C, symBinAddr: 0x100002CAC, symSize: 0xB8 }
  - { offsetInCU: 0x10AA4, offset: 0x10AA4, size: 0x8, addend: 0x0, symName: __ZNSt3__16vectorIiNS_9allocatorIiEEE9push_backB7v160006EOi, symObjAddr: 0x1904, symBinAddr: 0x100002D64, symSize: 0x6C }
  - { offsetInCU: 0x10ADA, offset: 0x10ADA, size: 0x8, addend: 0x0, symName: __ZNKSt3__16vectorIiNS_9allocatorIiEEE4sizeB7v160006Ev, symObjAddr: 0x1970, symBinAddr: 0x100002DD0, symSize: 0x28 }
  - { offsetInCU: 0x10AFE, offset: 0x10AFE, size: 0x8, addend: 0x0, symName: __ZNSt3__16vectorIiNS_9allocatorIiEEE2atEm, symObjAddr: 0x1998, symBinAddr: 0x100002DF8, symSize: 0x60 }
  - { offsetInCU: 0x10B34, offset: 0x10B34, size: 0x8, addend: 0x0, symName: __ZN10DepartmentD2Ev, symObjAddr: 0x19F8, symBinAddr: 0x100002E58, symSize: 0x140 }
  - { offsetInCU: 0x10B5E, offset: 0x10B5E, size: 0x8, addend: 0x0, symName: __ZNSt3__16vectorI8EmployeeNS_9allocatorIS1_EEED1B7v160006Ev, symObjAddr: 0x1B38, symBinAddr: 0x100002F98, symSize: 0x2C }
  - { offsetInCU: 0x10B86, offset: 0x10B86, size: 0x8, addend: 0x0, symName: __ZNSt3__16vectorI10ProgrammerNS_9allocatorIS1_EEED1B7v160006Ev, symObjAddr: 0x1B64, symBinAddr: 0x100002FC4, symSize: 0x2C }
  - { offsetInCU: 0x10BAE, offset: 0x10BAE, size: 0x8, addend: 0x0, symName: __ZNSt3__16vectorI17SoftwareArchitectNS_9allocatorIS1_EEED1B7v160006Ev, symObjAddr: 0x1B90, symBinAddr: 0x100002FF0, symSize: 0x2C }
  - { offsetInCU: 0x10BD6, offset: 0x10BD6, size: 0x8, addend: 0x0, symName: __ZN10DepartmentD1Ev, symObjAddr: 0x1BBC, symBinAddr: 0x10000301C, symSize: 0x2C }
  - { offsetInCU: 0x10C00, offset: 0x10C00, size: 0x8, addend: 0x0, symName: __ZN10ProgrammerC2ERKS_, symObjAddr: 0x1BE8, symBinAddr: 0x100003048, symSize: 0xD8 }
  - { offsetInCU: 0x10C33, offset: 0x10C33, size: 0x8, addend: 0x0, symName: __ZN8EmployeeC2ERKS_, symObjAddr: 0x1CC0, symBinAddr: 0x100003120, symSize: 0xF8 }
  - { offsetInCU: 0x10C66, offset: 0x10C66, size: 0x8, addend: 0x0, symName: __ZN8EmployeeD2Ev, symObjAddr: 0x1DB8, symBinAddr: 0x100003218, symSize: 0xB0 }
  - { offsetInCU: 0x10C90, offset: 0x10C90, size: 0x8, addend: 0x0, symName: __ZN10ProgrammerD2Ev, symObjAddr: 0x1E68, symBinAddr: 0x1000032C8, symSize: 0xA8 }
  - { offsetInCU: 0x10CBA, offset: 0x10CBA, size: 0x8, addend: 0x0, symName: __ZNSt3__112basic_stringIcNS_11char_traitsIcEENS_9allocatorIcEEEC2B7v160006Ev, symObjAddr: 0x1F10, symBinAddr: 0x100003370, symSize: 0x44 }
  - { offsetInCU: 0x10CE7, offset: 0x10CE7, size: 0x8, addend: 0x0, symName: __ZNSt3__117__compressed_pairINS_12basic_stringIcNS_11char_traitsIcEENS_9allocatorIcEEE5__repES5_EC1B7v160006INS_18__default_init_tagESA_EEOT_OT0_, symObjAddr: 0x1F54, symBinAddr: 0x1000033B4, symSize: 0x3C }
  - { offsetInCU: 0x10D3D, offset: 0x10D3D, size: 0x8, addend: 0x0, symName: __ZNSt3__112basic_stringIcNS_11char_traitsIcEENS_9allocatorIcEEE14__default_initB7v160006Ev, symObjAddr: 0x1FA0, symBinAddr: 0x100003400, symSize: 0xB0 }
  - { offsetInCU: 0x10D8F, offset: 0x10D8F, size: 0x8, addend: 0x0, symName: __ZNSt3__117__compressed_pairINS_12basic_stringIcNS_11char_traitsIcEENS_9allocatorIcEEE5__repES5_EC2B7v160006INS_18__default_init_tagESA_EEOT_OT0_, symObjAddr: 0x2050, symBinAddr: 0x1000034B0, symSize: 0x3C }
  - { offsetInCU: 0x10DE5, offset: 0x10DE5, size: 0x8, addend: 0x0, symName: __ZNSt3__122__compressed_pair_elemINS_12basic_stringIcNS_11char_traitsIcEENS_9allocatorIcEEE5__repELi0ELb0EEC2B7v160006ENS_18__default_init_tagE, symObjAddr: 0x208C, symBinAddr: 0x1000034EC, symSize: 0x14 }
  - { offsetInCU: 0x10E19, offset: 0x10E19, size: 0x8, addend: 0x0, symName: __ZNSt3__122__compressed_pair_elemINS_9allocatorIcEELi1ELb1EEC2B7v160006ENS_18__default_init_tagE, symObjAddr: 0x20A0, symBinAddr: 0x100003500, symSize: 0x2C }
  - { offsetInCU: 0x10E4C, offset: 0x10E4C, size: 0x8, addend: 0x0, symName: __ZNSt3__19allocatorIcEC2B7v160006Ev, symObjAddr: 0x20CC, symBinAddr: 0x10000352C, symSize: 0x2C }
  - { offsetInCU: 0x10E74, offset: 0x10E74, size: 0x8, addend: 0x0, symName: __ZNSt3__116__non_trivial_ifILb1ENS_9allocatorIcEEEC2B7v160006Ev, symObjAddr: 0x20F8, symBinAddr: 0x100003558, symSize: 0x14 }
  - { offsetInCU: 0x10E9D, offset: 0x10E9D, size: 0x8, addend: 0x0, symName: __ZNSt3__117__compressed_pairINS_12basic_stringIcNS_11char_traitsIcEENS_9allocatorIcEEE5__repES5_E5firstB7v160006Ev, symObjAddr: 0x210C, symBinAddr: 0x10000356C, symSize: 0x24 }
  - { offsetInCU: 0x10EC2, offset: 0x10EC2, size: 0x8, addend: 0x0, symName: __ZNSt3__112basic_stringIcNS_11char_traitsIcEENS_9allocatorIcEEE11__recommendB7v160006Em, symObjAddr: 0x213C, symBinAddr: 0x10000359C, symSize: 0x9C }
  - { offsetInCU: 0x10EF5, offset: 0x10EF5, size: 0x8, addend: 0x0, symName: __ZNSt3__116allocator_traitsINS_9allocatorIcEEE8allocateB7v160006ERS2_m, symObjAddr: 0x21D8, symBinAddr: 0x100003638, symSize: 0x2C }
  - { offsetInCU: 0x10F28, offset: 0x10F28, size: 0x8, addend: 0x0, symName: __ZNSt3__112basic_stringIcNS_11char_traitsIcEENS_9allocatorIcEEE7__allocB7v160006Ev, symObjAddr: 0x2204, symBinAddr: 0x100003664, symSize: 0x24 }
  - { offsetInCU: 0x10F4D, offset: 0x10F4D, size: 0x8, addend: 0x0, symName: __ZNSt3__112basic_stringIcNS_11char_traitsIcEENS_9allocatorIcEEE16__begin_lifetimeB7v160006EPcm, symObjAddr: 0x2228, symBinAddr: 0x100003688, symSize: 0x14 }
  - { offsetInCU: 0x10F80, offset: 0x10F80, size: 0x8, addend: 0x0, symName: __ZNSt3__112basic_stringIcNS_11char_traitsIcEENS_9allocatorIcEEE18__set_long_pointerB7v160006EPc, symObjAddr: 0x223C, symBinAddr: 0x10000369C, symSize: 0x38 }
  - { offsetInCU: 0x10FB4, offset: 0x10FB4, size: 0x8, addend: 0x0, symName: __ZNSt3__112basic_stringIcNS_11char_traitsIcEENS_9allocatorIcEEE14__set_long_capB7v160006Em, symObjAddr: 0x2274, symBinAddr: 0x1000036D4, symSize: 0x70 }
  - { offsetInCU: 0x10FE8, offset: 0x10FE8, size: 0x8, addend: 0x0, symName: __ZNSt3__112basic_stringIcNS_11char_traitsIcEENS_9allocatorIcEEE15__set_long_sizeB7v160006Em, symObjAddr: 0x22E4, symBinAddr: 0x100003744, symSize: 0x38 }
  - { offsetInCU: 0x1101C, offset: 0x1101C, size: 0x8, addend: 0x0, symName: __ZNSt3__122__compressed_pair_elemINS_12basic_stringIcNS_11char_traitsIcEENS_9allocatorIcEEE5__repELi0ELb0EE5__getB7v160006Ev, symObjAddr: 0x231C, symBinAddr: 0x10000377C, symSize: 0x14 }
  - { offsetInCU: 0x11041, offset: 0x11041, size: 0x8, addend: 0x0, symName: __ZNSt3__112basic_stringIcNS_11char_traitsIcEENS_9allocatorIcEEE10__align_itB7v160006ILm16EEEmm, symObjAddr: 0x2330, symBinAddr: 0x100003790, symSize: 0x1C }
  - { offsetInCU: 0x1106F, offset: 0x1106F, size: 0x8, addend: 0x0, symName: __ZNSt3__19allocatorIcE8allocateB7v160006Em, symObjAddr: 0x234C, symBinAddr: 0x1000037AC, symSize: 0x84 }
  - { offsetInCU: 0x110AC, offset: 0x110AC, size: 0x8, addend: 0x0, symName: __ZNSt3__116allocator_traitsINS_9allocatorIcEEE8max_sizeB7v160006IS2_vEEmRKS2_, symObjAddr: 0x23D0, symBinAddr: 0x100003830, symSize: 0x24 }
  - { offsetInCU: 0x110DA, offset: 0x110DA, size: 0x8, addend: 0x0, symName: __ZNKSt3__19allocatorIcE8max_sizeB7v160006Ev, symObjAddr: 0x2450, symBinAddr: 0x1000038B0, symSize: 0x14 }
  - { offsetInCU: 0x110FF, offset: 0x110FF, size: 0x8, addend: 0x0, symName: __ZNSt3__117__compressed_pairINS_12basic_stringIcNS_11char_traitsIcEENS_9allocatorIcEEE5__repES5_E6secondB7v160006Ev, symObjAddr: 0x2488, symBinAddr: 0x1000038E8, symSize: 0x24 }
  - { offsetInCU: 0x11124, offset: 0x11124, size: 0x8, addend: 0x0, symName: __ZNSt3__122__compressed_pair_elemINS_9allocatorIcEELi1ELb1EE5__getB7v160006Ev, symObjAddr: 0x24AC, symBinAddr: 0x10000390C, symSize: 0x14 }
  - { offsetInCU: 0x11149, offset: 0x11149, size: 0x8, addend: 0x0, symName: __ZNSt3__16vectorI8EmployeeNS_9allocatorIS1_EEEC2B7v160006Ev, symObjAddr: 0x24C0, symBinAddr: 0x100003920, symSize: 0x4C }
  - { offsetInCU: 0x11176, offset: 0x11176, size: 0x8, addend: 0x0, symName: __ZNSt3__117__compressed_pairIP8EmployeeNS_9allocatorIS1_EEEC1B7v160006IDnNS_18__default_init_tagEEEOT_OT0_, symObjAddr: 0x250C, symBinAddr: 0x10000396C, symSize: 0x3C }
  - { offsetInCU: 0x111CC, offset: 0x111CC, size: 0x8, addend: 0x0, symName: __ZNSt3__117__compressed_pairIP8EmployeeNS_9allocatorIS1_EEEC2B7v160006IDnNS_18__default_init_tagEEEOT_OT0_, symObjAddr: 0x2558, symBinAddr: 0x1000039B8, symSize: 0x40 }
  - { offsetInCU: 0x11222, offset: 0x11222, size: 0x8, addend: 0x0, symName: __ZNSt3__122__compressed_pair_elemIP8EmployeeLi0ELb0EEC2B7v160006IDnvEEOT_, symObjAddr: 0x2598, symBinAddr: 0x1000039F8, symSize: 0x1C }
  - { offsetInCU: 0x11263, offset: 0x11263, size: 0x8, addend: 0x0, symName: __ZNSt3__122__compressed_pair_elemINS_9allocatorI8EmployeeEELi1ELb1EEC2B7v160006ENS_18__default_init_tagE, symObjAddr: 0x25B4, symBinAddr: 0x100003A14, symSize: 0x2C }
  - { offsetInCU: 0x11296, offset: 0x11296, size: 0x8, addend: 0x0, symName: __ZNSt3__19allocatorI8EmployeeEC2B7v160006Ev, symObjAddr: 0x25E0, symBinAddr: 0x100003A40, symSize: 0x2C }
  - { offsetInCU: 0x112BE, offset: 0x112BE, size: 0x8, addend: 0x0, symName: __ZNSt3__116__non_trivial_ifILb1ENS_9allocatorI8EmployeeEEEC2B7v160006Ev, symObjAddr: 0x260C, symBinAddr: 0x100003A6C, symSize: 0x14 }
  - { offsetInCU: 0x112E7, offset: 0x112E7, size: 0x8, addend: 0x0, symName: __ZNSt3__16vectorI10ProgrammerNS_9allocatorIS1_EEEC2B7v160006Ev, symObjAddr: 0x2620, symBinAddr: 0x100003A80, symSize: 0x4C }
  - { offsetInCU: 0x1130F, offset: 0x1130F, size: 0x8, addend: 0x0, symName: __ZNSt3__117__compressed_pairIP10ProgrammerNS_9allocatorIS1_EEEC1B7v160006IDnNS_18__default_init_tagEEEOT_OT0_, symObjAddr: 0x266C, symBinAddr: 0x100003ACC, symSize: 0x3C }
  - { offsetInCU: 0x11365, offset: 0x11365, size: 0x8, addend: 0x0, symName: __ZNSt3__117__compressed_pairIP10ProgrammerNS_9allocatorIS1_EEEC2B7v160006IDnNS_18__default_init_tagEEEOT_OT0_, symObjAddr: 0x26B8, symBinAddr: 0x100003B18, symSize: 0x40 }
  - { offsetInCU: 0x113BB, offset: 0x113BB, size: 0x8, addend: 0x0, symName: __ZNSt3__122__compressed_pair_elemIP10ProgrammerLi0ELb0EEC2B7v160006IDnvEEOT_, symObjAddr: 0x26F8, symBinAddr: 0x100003B58, symSize: 0x1C }
  - { offsetInCU: 0x113FC, offset: 0x113FC, size: 0x8, addend: 0x0, symName: __ZNSt3__122__compressed_pair_elemINS_9allocatorI10ProgrammerEELi1ELb1EEC2B7v160006ENS_18__default_init_tagE, symObjAddr: 0x2714, symBinAddr: 0x100003B74, symSize: 0x2C }
  - { offsetInCU: 0x1142F, offset: 0x1142F, size: 0x8, addend: 0x0, symName: __ZNSt3__19allocatorI10ProgrammerEC2B7v160006Ev, symObjAddr: 0x2740, symBinAddr: 0x100003BA0, symSize: 0x2C }
  - { offsetInCU: 0x11457, offset: 0x11457, size: 0x8, addend: 0x0, symName: __ZNSt3__116__non_trivial_ifILb1ENS_9allocatorI10ProgrammerEEEC2B7v160006Ev, symObjAddr: 0x276C, symBinAddr: 0x100003BCC, symSize: 0x14 }
  - { offsetInCU: 0x11480, offset: 0x11480, size: 0x8, addend: 0x0, symName: __ZNSt3__16vectorI17SoftwareArchitectNS_9allocatorIS1_EEEC2B7v160006Ev, symObjAddr: 0x2780, symBinAddr: 0x100003BE0, symSize: 0x4C }
  - { offsetInCU: 0x114A8, offset: 0x114A8, size: 0x8, addend: 0x0, symName: __ZNSt3__117__compressed_pairIP17SoftwareArchitectNS_9allocatorIS1_EEEC1B7v160006IDnNS_18__default_init_tagEEEOT_OT0_, symObjAddr: 0x27CC, symBinAddr: 0x100003C2C, symSize: 0x3C }
  - { offsetInCU: 0x114FE, offset: 0x114FE, size: 0x8, addend: 0x0, symName: __ZNSt3__117__compressed_pairIP17SoftwareArchitectNS_9allocatorIS1_EEEC2B7v160006IDnNS_18__default_init_tagEEEOT_OT0_, symObjAddr: 0x2818, symBinAddr: 0x100003C78, symSize: 0x40 }
  - { offsetInCU: 0x11554, offset: 0x11554, size: 0x8, addend: 0x0, symName: __ZNSt3__122__compressed_pair_elemIP17SoftwareArchitectLi0ELb0EEC2B7v160006IDnvEEOT_, symObjAddr: 0x2858, symBinAddr: 0x100003CB8, symSize: 0x1C }
  - { offsetInCU: 0x11595, offset: 0x11595, size: 0x8, addend: 0x0, symName: __ZNSt3__122__compressed_pair_elemINS_9allocatorI17SoftwareArchitectEELi1ELb1EEC2B7v160006ENS_18__default_init_tagE, symObjAddr: 0x2874, symBinAddr: 0x100003CD4, symSize: 0x2C }
  - { offsetInCU: 0x115C8, offset: 0x115C8, size: 0x8, addend: 0x0, symName: __ZNSt3__19allocatorI17SoftwareArchitectEC2B7v160006Ev, symObjAddr: 0x28A0, symBinAddr: 0x100003D00, symSize: 0x2C }
  - { offsetInCU: 0x115F0, offset: 0x115F0, size: 0x8, addend: 0x0, symName: __ZNSt3__116__non_trivial_ifILb1ENS_9allocatorI17SoftwareArchitectEEEC2B7v160006Ev, symObjAddr: 0x28CC, symBinAddr: 0x100003D2C, symSize: 0x14 }
  - { offsetInCU: 0x11619, offset: 0x11619, size: 0x8, addend: 0x0, symName: __ZNKSt3__16vectorI8EmployeeNS_9allocatorIS1_EEE20__throw_out_of_rangeB7v160006Ev, symObjAddr: 0x28E0, symBinAddr: 0x100003D40, symSize: 0x1C }
  - { offsetInCU: 0x1163E, offset: 0x1163E, size: 0x8, addend: 0x0, symName: __ZNSt12out_of_rangeC1B7v160006EPKc, symObjAddr: 0x2960, symBinAddr: 0x100003DC0, symSize: 0x34 }
  - { offsetInCU: 0x11674, offset: 0x11674, size: 0x8, addend: 0x0, symName: __ZNSt12out_of_rangeC2B7v160006EPKc, symObjAddr: 0x2994, symBinAddr: 0x100003DF4, symSize: 0x4C }
  - { offsetInCU: 0x116AA, offset: 0x116AA, size: 0x8, addend: 0x0, symName: __ZNKSt3__16vectorI10ProgrammerNS_9allocatorIS1_EEE20__throw_out_of_rangeB7v160006Ev, symObjAddr: 0x29E0, symBinAddr: 0x100003E40, symSize: 0x1C }
  - { offsetInCU: 0x116CF, offset: 0x116CF, size: 0x8, addend: 0x0, symName: __ZNKSt3__16vectorI17SoftwareArchitectNS_9allocatorIS1_EEE20__throw_out_of_rangeB7v160006Ev, symObjAddr: 0x29FC, symBinAddr: 0x100003E5C, symSize: 0x1C }
  - { offsetInCU: 0x116F4, offset: 0x116F4, size: 0x8, addend: 0x0, symName: __ZNSt3__16vectorIP8EmployeeNS_9allocatorIS2_EEEC2B7v160006Ev, symObjAddr: 0x2A18, symBinAddr: 0x100003E78, symSize: 0x4C }
  - { offsetInCU: 0x1171C, offset: 0x1171C, size: 0x8, addend: 0x0, symName: __ZNSt3__117__compressed_pairIPP8EmployeeNS_9allocatorIS2_EEEC1B7v160006IDnNS_18__default_init_tagEEEOT_OT0_, symObjAddr: 0x2A64, symBinAddr: 0x100003EC4, symSize: 0x3C }
  - { offsetInCU: 0x11772, offset: 0x11772, size: 0x8, addend: 0x0, symName: __ZNSt3__117__compressed_pairIPP8EmployeeNS_9allocatorIS2_EEEC2B7v160006IDnNS_18__default_init_tagEEEOT_OT0_, symObjAddr: 0x2AB0, symBinAddr: 0x100003F10, symSize: 0x40 }
  - { offsetInCU: 0x117C8, offset: 0x117C8, size: 0x8, addend: 0x0, symName: __ZNSt3__122__compressed_pair_elemIPP8EmployeeLi0ELb0EEC2B7v160006IDnvEEOT_, symObjAddr: 0x2AF0, symBinAddr: 0x100003F50, symSize: 0x1C }
  - { offsetInCU: 0x11809, offset: 0x11809, size: 0x8, addend: 0x0, symName: __ZNSt3__122__compressed_pair_elemINS_9allocatorIP8EmployeeEELi1ELb1EEC2B7v160006ENS_18__default_init_tagE, symObjAddr: 0x2B0C, symBinAddr: 0x100003F6C, symSize: 0x2C }
  - { offsetInCU: 0x1183C, offset: 0x1183C, size: 0x8, addend: 0x0, symName: __ZNSt3__19allocatorIP8EmployeeEC2B7v160006Ev, symObjAddr: 0x2B38, symBinAddr: 0x100003F98, symSize: 0x2C }
  - { offsetInCU: 0x11864, offset: 0x11864, size: 0x8, addend: 0x0, symName: __ZNSt3__116__non_trivial_ifILb1ENS_9allocatorIP8EmployeeEEEC2B7v160006Ev, symObjAddr: 0x2B64, symBinAddr: 0x100003FC4, symSize: 0x14 }
  - { offsetInCU: 0x1188D, offset: 0x1188D, size: 0x8, addend: 0x0, symName: __ZNSt3__16vectorIP8EmployeeNS_9allocatorIS2_EEE9__end_capB7v160006Ev, symObjAddr: 0x2B78, symBinAddr: 0x100003FD8, symSize: 0x28 }
  - { offsetInCU: 0x118B7, offset: 0x118B7, size: 0x8, addend: 0x0, symName: __ZNSt3__16vectorIP8EmployeeNS_9allocatorIS2_EEE22__construct_one_at_endB7v160006IJS2_EEEvDpOT_, symObjAddr: 0x2BA0, symBinAddr: 0x100004000, symSize: 0x98 }
  - { offsetInCU: 0x11904, offset: 0x11904, size: 0x8, addend: 0x0, symName: __ZNSt3__16vectorIP8EmployeeNS_9allocatorIS2_EEE21__push_back_slow_pathIS2_EEvOT_, symObjAddr: 0x2C38, symBinAddr: 0x100004098, symSize: 0xE0 }
  - { offsetInCU: 0x11961, offset: 0x11961, size: 0x8, addend: 0x0, symName: __ZNSt3__117__compressed_pairIPP8EmployeeNS_9allocatorIS2_EEE5firstB7v160006Ev, symObjAddr: 0x2D18, symBinAddr: 0x100004178, symSize: 0x24 }
  - { offsetInCU: 0x11986, offset: 0x11986, size: 0x8, addend: 0x0, symName: __ZNSt3__122__compressed_pair_elemIPP8EmployeeLi0ELb0EE5__getB7v160006Ev, symObjAddr: 0x2D3C, symBinAddr: 0x10000419C, symSize: 0x14 }
  - { offsetInCU: 0x119C4, offset: 0x119C4, size: 0x8, addend: 0x0, symName: __ZNSt3__16vectorIP8EmployeeNS_9allocatorIS2_EEE21_ConstructTransactionC1B7v160006ERS5_m, symObjAddr: 0x2D50, symBinAddr: 0x1000041B0, symSize: 0x3C }
  - { offsetInCU: 0x11A0A, offset: 0x11A0A, size: 0x8, addend: 0x0, symName: __ZNSt3__116allocator_traitsINS_9allocatorIP8EmployeeEEE9constructB7v160006IS3_JS3_EvEEvRS4_PT_DpOT0_, symObjAddr: 0x2D8C, symBinAddr: 0x1000041EC, symSize: 0x34 }
  - { offsetInCU: 0x11A61, offset: 0x11A61, size: 0x8, addend: 0x0, symName: __ZNSt3__16vectorIP8EmployeeNS_9allocatorIS2_EEE7__allocB7v160006Ev, symObjAddr: 0x2DC0, symBinAddr: 0x100004220, symSize: 0x28 }
  - { offsetInCU: 0x11A86, offset: 0x11A86, size: 0x8, addend: 0x0, symName: __ZNSt3__16vectorIP8EmployeeNS_9allocatorIS2_EEE21_ConstructTransactionD1B7v160006Ev, symObjAddr: 0x2DFC, symBinAddr: 0x10000425C, symSize: 0x2C }
  - { offsetInCU: 0x11AAE, offset: 0x11AAE, size: 0x8, addend: 0x0, symName: __ZNSt3__16vectorIP8EmployeeNS_9allocatorIS2_EEE21_ConstructTransactionC2B7v160006ERS5_m, symObjAddr: 0x2E28, symBinAddr: 0x100004288, symSize: 0x44 }
  - { offsetInCU: 0x11AF5, offset: 0x11AF5, size: 0x8, addend: 0x0, symName: __ZNSt3__19allocatorIP8EmployeeE9constructB7v160006IS2_JS2_EEEvPT_DpOT0_, symObjAddr: 0x2E6C, symBinAddr: 0x1000042CC, symSize: 0x28 }
  - { offsetInCU: 0x11B4A, offset: 0x11B4A, size: 0x8, addend: 0x0, symName: __ZNSt3__117__compressed_pairIPP8EmployeeNS_9allocatorIS2_EEE6secondB7v160006Ev, symObjAddr: 0x2E94, symBinAddr: 0x1000042F4, symSize: 0x24 }
  - { offsetInCU: 0x11B6F, offset: 0x11B6F, size: 0x8, addend: 0x0, symName: __ZNSt3__122__compressed_pair_elemINS_9allocatorIP8EmployeeEELi1ELb1EE5__getB7v160006Ev, symObjAddr: 0x2EB8, symBinAddr: 0x100004318, symSize: 0x14 }
  - { offsetInCU: 0x11B94, offset: 0x11B94, size: 0x8, addend: 0x0, symName: __ZNSt3__16vectorIP8EmployeeNS_9allocatorIS2_EEE21_ConstructTransactionD2B7v160006Ev, symObjAddr: 0x2ECC, symBinAddr: 0x10000432C, symSize: 0x20 }
  - { offsetInCU: 0x11BBC, offset: 0x11BBC, size: 0x8, addend: 0x0, symName: __ZNKSt3__16vectorIP8EmployeeNS_9allocatorIS2_EEE11__recommendB7v160006Em, symObjAddr: 0x2EEC, symBinAddr: 0x10000434C, symSize: 0xB4 }
  - { offsetInCU: 0x11C10, offset: 0x11C10, size: 0x8, addend: 0x0, symName: __ZNKSt3__16vectorIP8EmployeeNS_9allocatorIS2_EEE4sizeB7v160006Ev, symObjAddr: 0x2FA0, symBinAddr: 0x100004400, symSize: 0x28 }
  - { offsetInCU: 0x11C35, offset: 0x11C35, size: 0x8, addend: 0x0, symName: __ZNSt3__114__split_bufferIP8EmployeeRNS_9allocatorIS2_EEEC1EmmS5_, symObjAddr: 0x2FC8, symBinAddr: 0x100004428, symSize: 0x44 }
  - { offsetInCU: 0x11C8A, offset: 0x11C8A, size: 0x8, addend: 0x0, symName: __ZNSt3__114__split_bufferIP8EmployeeRNS_9allocatorIS2_EEED1Ev, symObjAddr: 0x3124, symBinAddr: 0x100004584, symSize: 0x2C }
  - { offsetInCU: 0x11CB4, offset: 0x11CB4, size: 0x8, addend: 0x0, symName: __ZNKSt3__16vectorIP8EmployeeNS_9allocatorIS2_EEE8max_sizeEv, symObjAddr: 0x3150, symBinAddr: 0x1000045B0, symSize: 0x74 }
  - { offsetInCU: 0x11CDB, offset: 0x11CDB, size: 0x8, addend: 0x0, symName: __ZNKSt3__16vectorIP8EmployeeNS_9allocatorIS2_EEE20__throw_length_errorB7v160006Ev, symObjAddr: 0x31C4, symBinAddr: 0x100004624, symSize: 0x1C }
  - { offsetInCU: 0x11D00, offset: 0x11D00, size: 0x8, addend: 0x0, symName: __ZNKSt3__16vectorIP8EmployeeNS_9allocatorIS2_EEE8capacityB7v160006Ev, symObjAddr: 0x31E0, symBinAddr: 0x100004640, symSize: 0x40 }
  - { offsetInCU: 0x11D2F, offset: 0x11D2F, size: 0x8, addend: 0x0, symName: __ZNSt3__116allocator_traitsINS_9allocatorIP8EmployeeEEE8max_sizeB7v160006IS4_vEEmRKS4_, symObjAddr: 0x3278, symBinAddr: 0x1000046D8, symSize: 0x24 }
  - { offsetInCU: 0x11D5D, offset: 0x11D5D, size: 0x8, addend: 0x0, symName: __ZNKSt3__16vectorIP8EmployeeNS_9allocatorIS2_EEE7__allocB7v160006Ev, symObjAddr: 0x329C, symBinAddr: 0x1000046FC, symSize: 0x28 }
  - { offsetInCU: 0x11D82, offset: 0x11D82, size: 0x8, addend: 0x0, symName: __ZNSt3__114numeric_limitsIlE3maxB7v160006Ev, symObjAddr: 0x32C4, symBinAddr: 0x100004724, symSize: 0x14 }
  - { offsetInCU: 0x11DAA, offset: 0x11DAA, size: 0x8, addend: 0x0, symName: __ZNKSt3__16__lessImmEclB7v160006ERKmS3_, symObjAddr: 0x332C, symBinAddr: 0x10000478C, symSize: 0x34 }
  - { offsetInCU: 0x11DEB, offset: 0x11DEB, size: 0x8, addend: 0x0, symName: __ZNKSt3__19allocatorIP8EmployeeE8max_sizeB7v160006Ev, symObjAddr: 0x3360, symBinAddr: 0x1000047C0, symSize: 0x14 }
  - { offsetInCU: 0x11E10, offset: 0x11E10, size: 0x8, addend: 0x0, symName: __ZNKSt3__117__compressed_pairIPP8EmployeeNS_9allocatorIS2_EEE6secondB7v160006Ev, symObjAddr: 0x3374, symBinAddr: 0x1000047D4, symSize: 0x24 }
  - { offsetInCU: 0x11E35, offset: 0x11E35, size: 0x8, addend: 0x0, symName: __ZNKSt3__122__compressed_pair_elemINS_9allocatorIP8EmployeeEELi1ELb1EE5__getB7v160006Ev, symObjAddr: 0x3398, symBinAddr: 0x1000047F8, symSize: 0x14 }
  - { offsetInCU: 0x11E5A, offset: 0x11E5A, size: 0x8, addend: 0x0, symName: __ZNSt3__123__libcpp_numeric_limitsIlLb1EE3maxB7v160006Ev, symObjAddr: 0x33AC, symBinAddr: 0x10000480C, symSize: 0x8 }
  - { offsetInCU: 0x11E6E, offset: 0x11E6E, size: 0x8, addend: 0x0, symName: __ZNSt12length_errorC1B7v160006EPKc, symObjAddr: 0x3418, symBinAddr: 0x100004878, symSize: 0x34 }
  - { offsetInCU: 0x11EA4, offset: 0x11EA4, size: 0x8, addend: 0x0, symName: __ZNSt12length_errorC2B7v160006EPKc, symObjAddr: 0x344C, symBinAddr: 0x1000048AC, symSize: 0x4C }
  - { offsetInCU: 0x11EDA, offset: 0x11EDA, size: 0x8, addend: 0x0, symName: __ZNKSt3__16vectorIP8EmployeeNS_9allocatorIS2_EEE9__end_capB7v160006Ev, symObjAddr: 0x3498, symBinAddr: 0x1000048F8, symSize: 0x28 }
  - { offsetInCU: 0x11EFF, offset: 0x11EFF, size: 0x8, addend: 0x0, symName: __ZNKSt3__117__compressed_pairIPP8EmployeeNS_9allocatorIS2_EEE5firstB7v160006Ev, symObjAddr: 0x34C0, symBinAddr: 0x100004920, symSize: 0x24 }
  - { offsetInCU: 0x11F24, offset: 0x11F24, size: 0x8, addend: 0x0, symName: __ZNKSt3__122__compressed_pair_elemIPP8EmployeeLi0ELb0EE5__getB7v160006Ev, symObjAddr: 0x34E4, symBinAddr: 0x100004944, symSize: 0x14 }
  - { offsetInCU: 0x11F49, offset: 0x11F49, size: 0x8, addend: 0x0, symName: __ZNSt3__114__split_bufferIP8EmployeeRNS_9allocatorIS2_EEEC2EmmS5_, symObjAddr: 0x354C, symBinAddr: 0x1000049AC, symSize: 0xD4 }
  - { offsetInCU: 0x11FBC, offset: 0x11FBC, size: 0x8, addend: 0x0, symName: __ZNSt3__117__compressed_pairIPP8EmployeeRNS_9allocatorIS2_EEEC1B7v160006IDnS6_EEOT_OT0_, symObjAddr: 0x3620, symBinAddr: 0x100004A80, symSize: 0x3C }
  - { offsetInCU: 0x12012, offset: 0x12012, size: 0x8, addend: 0x0, symName: __ZNSt3__114__split_bufferIP8EmployeeRNS_9allocatorIS2_EEE7__allocB7v160006Ev, symObjAddr: 0x369C, symBinAddr: 0x100004AFC, symSize: 0x28 }
  - { offsetInCU: 0x12037, offset: 0x12037, size: 0x8, addend: 0x0, symName: __ZNSt3__114__split_bufferIP8EmployeeRNS_9allocatorIS2_EEE9__end_capB7v160006Ev, symObjAddr: 0x36C4, symBinAddr: 0x100004B24, symSize: 0x28 }
  - { offsetInCU: 0x1205C, offset: 0x1205C, size: 0x8, addend: 0x0, symName: __ZNSt3__117__compressed_pairIPP8EmployeeRNS_9allocatorIS2_EEEC2B7v160006IDnS6_EEOT_OT0_, symObjAddr: 0x36EC, symBinAddr: 0x100004B4C, symSize: 0x48 }
  - { offsetInCU: 0x120B2, offset: 0x120B2, size: 0x8, addend: 0x0, symName: __ZNSt3__122__compressed_pair_elemIRNS_9allocatorIP8EmployeeEELi1ELb0EEC2B7v160006IS5_vEEOT_, symObjAddr: 0x3734, symBinAddr: 0x100004B94, symSize: 0x20 }
  - { offsetInCU: 0x120F3, offset: 0x120F3, size: 0x8, addend: 0x0, symName: __ZNSt3__19allocatorIP8EmployeeE8allocateB7v160006Em, symObjAddr: 0x3754, symBinAddr: 0x100004BB4, symSize: 0x84 }
  - { offsetInCU: 0x12126, offset: 0x12126, size: 0x8, addend: 0x0, symName: __ZNSt3__117__compressed_pairIPP8EmployeeRNS_9allocatorIS2_EEE6secondB7v160006Ev, symObjAddr: 0x37D8, symBinAddr: 0x100004C38, symSize: 0x28 }
  - { offsetInCU: 0x1214B, offset: 0x1214B, size: 0x8, addend: 0x0, symName: __ZNSt3__122__compressed_pair_elemIRNS_9allocatorIP8EmployeeEELi1ELb0EE5__getB7v160006Ev, symObjAddr: 0x3800, symBinAddr: 0x100004C60, symSize: 0x18 }
  - { offsetInCU: 0x12170, offset: 0x12170, size: 0x8, addend: 0x0, symName: __ZNSt3__117__compressed_pairIPP8EmployeeRNS_9allocatorIS2_EEE5firstB7v160006Ev, symObjAddr: 0x3818, symBinAddr: 0x100004C78, symSize: 0x24 }
  - { offsetInCU: 0x12195, offset: 0x12195, size: 0x8, addend: 0x0, symName: __ZNKSt3__16vectorIP8EmployeeNS_9allocatorIS2_EEE17__annotate_deleteB7v160006Ev, symObjAddr: 0x383C, symBinAddr: 0x100004C9C, symSize: 0xB8 }
  - { offsetInCU: 0x121BA, offset: 0x121BA, size: 0x8, addend: 0x0, symName: __ZNSt3__116reverse_iteratorIPP8EmployeeEC1B7v160006ES3_, symObjAddr: 0x39DC, symBinAddr: 0x100004E3C, symSize: 0x34 }
  - { offsetInCU: 0x121F0, offset: 0x121F0, size: 0x8, addend: 0x0, symName: __ZNKSt3__116reverse_iteratorIPP8EmployeeE4baseB7v160006Ev, symObjAddr: 0x3A10, symBinAddr: 0x100004E70, symSize: 0x18 }
  - { offsetInCU: 0x12215, offset: 0x12215, size: 0x8, addend: 0x0, symName: __ZNKSt3__16vectorIP8EmployeeNS_9allocatorIS2_EEE14__annotate_newB7v160006Em, symObjAddr: 0x3A64, symBinAddr: 0x100004EC4, symSize: 0xAC }
  - { offsetInCU: 0x12249, offset: 0x12249, size: 0x8, addend: 0x0, symName: __ZNKSt3__16vectorIP8EmployeeNS_9allocatorIS2_EEE31__annotate_contiguous_containerB7v160006EPKvS7_S7_S7_, symObjAddr: 0x3B20, symBinAddr: 0x100004F80, symSize: 0x20 }
  - { offsetInCU: 0x1229A, offset: 0x1229A, size: 0x8, addend: 0x0, symName: __ZNKSt3__16vectorIP8EmployeeNS_9allocatorIS2_EEE4dataB7v160006Ev, symObjAddr: 0x3B40, symBinAddr: 0x100004FA0, symSize: 0x28 }
  - { offsetInCU: 0x122BF, offset: 0x122BF, size: 0x8, addend: 0x0, symName: __ZNKSt3__116reverse_iteratorIPP8EmployeeEdeB7v160006Ev, symObjAddr: 0x3C00, symBinAddr: 0x100005060, symSize: 0x28 }
  - { offsetInCU: 0x122F2, offset: 0x122F2, size: 0x8, addend: 0x0, symName: __ZNSt3__116reverse_iteratorIPP8EmployeeEppB7v160006Ev, symObjAddr: 0x3C28, symBinAddr: 0x100005088, symSize: 0x20 }
  - { offsetInCU: 0x1231C, offset: 0x1231C, size: 0x8, addend: 0x0, symName: __ZNSt3__119__to_address_helperINS_16reverse_iteratorIPP8EmployeeEEvE6__callB7v160006ERKS5_, symObjAddr: 0x3CC0, symBinAddr: 0x100005120, symSize: 0x4C }
  - { offsetInCU: 0x1233F, offset: 0x1233F, size: 0x8, addend: 0x0, symName: __ZNKSt3__116reverse_iteratorIPP8EmployeeEptB7v160006Ev, symObjAddr: 0x3D0C, symBinAddr: 0x10000516C, symSize: 0x24 }
  - { offsetInCU: 0x12387, offset: 0x12387, size: 0x8, addend: 0x0, symName: __ZNKSt3__111__move_loopINS_17_ClassicAlgPolicyEEclB7v160006INS_16reverse_iteratorIPP8EmployeeEES8_S8_EENS_4pairIT_T1_EESA_T0_SB_, symObjAddr: 0x3FC0, symBinAddr: 0x100005420, symSize: 0xA0 }
  - { offsetInCU: 0x123F1, offset: 0x123F1, size: 0x8, addend: 0x0, symName: __ZNSt3__18_IterOpsINS_17_ClassicAlgPolicyEE11__iter_moveB7v160006IRNS_16reverse_iteratorIPP8EmployeeEEEENS_9enable_ifIXsr12is_referenceIDTdeclsr3stdE7declvalIRT_EEEEE5valueEDTclsr3stdE4movedeclsr3stdE7declvalISC_EEEEE4typeEOSB_, symObjAddr: 0x41C0, symBinAddr: 0x100005620, symSize: 0x28 }
  - { offsetInCU: 0x1241D, offset: 0x1241D, size: 0x8, addend: 0x0, symName: __ZNSt3__18_IterOpsINS_17_ClassicAlgPolicyEE25__validate_iter_referenceB7v160006IRNS_16reverse_iteratorIPP8EmployeeEEEEvv, symObjAddr: 0x41E8, symBinAddr: 0x100005648, symSize: 0x4 }
  - { offsetInCU: 0x1243B, offset: 0x1243B, size: 0x8, addend: 0x0, symName: __ZNSt3__118__unwrap_iter_implINS_16reverse_iteratorIPP8EmployeeEELb0EE8__unwrapB7v160006ES5_, symObjAddr: 0x41EC, symBinAddr: 0x10000564C, symSize: 0x24 }
  - { offsetInCU: 0x1245E, offset: 0x1245E, size: 0x8, addend: 0x0, symName: __ZNSt3__14pairINS_16reverse_iteratorIPP8EmployeeEES5_EC1B7v160006ERKS5_S8_, symObjAddr: 0x4210, symBinAddr: 0x100005670, symSize: 0x3C }
  - { offsetInCU: 0x124A2, offset: 0x124A2, size: 0x8, addend: 0x0, symName: __ZNSt3__14pairINS_16reverse_iteratorIPP8EmployeeEES5_EC2B7v160006ERKS5_S8_, symObjAddr: 0x424C, symBinAddr: 0x1000056AC, symSize: 0x34 }
  - { offsetInCU: 0x124E7, offset: 0x124E7, size: 0x8, addend: 0x0, symName: __ZNSt3__118__unwrap_iter_implINS_16reverse_iteratorIPP8EmployeeEELb0EE8__rewrapB7v160006ES5_S5_, symObjAddr: 0x4280, symBinAddr: 0x1000056E0, symSize: 0x2C }
  - { offsetInCU: 0x12515, offset: 0x12515, size: 0x8, addend: 0x0, symName: __ZNSt3__116reverse_iteratorIPP8EmployeeEC2B7v160006ES3_, symObjAddr: 0x42AC, symBinAddr: 0x10000570C, symSize: 0x28 }
  - { offsetInCU: 0x1254C, offset: 0x1254C, size: 0x8, addend: 0x0, symName: __ZNSt3__114__split_bufferIP8EmployeeRNS_9allocatorIS2_EEED2Ev, symObjAddr: 0x42D4, symBinAddr: 0x100005734, symSize: 0x80 }
  - { offsetInCU: 0x12577, offset: 0x12577, size: 0x8, addend: 0x0, symName: __ZNSt3__114__split_bufferIP8EmployeeRNS_9allocatorIS2_EEE5clearB7v160006Ev, symObjAddr: 0x4354, symBinAddr: 0x1000057B4, symSize: 0x28 }
  - { offsetInCU: 0x1259C, offset: 0x1259C, size: 0x8, addend: 0x0, symName: __ZNSt3__116allocator_traitsINS_9allocatorIP8EmployeeEEE10deallocateB7v160006ERS4_PS3_m, symObjAddr: 0x437C, symBinAddr: 0x1000057DC, symSize: 0x34 }
  - { offsetInCU: 0x125DE, offset: 0x125DE, size: 0x8, addend: 0x0, symName: __ZNKSt3__114__split_bufferIP8EmployeeRNS_9allocatorIS2_EEE8capacityB7v160006Ev, symObjAddr: 0x43B0, symBinAddr: 0x100005810, symSize: 0x40 }
  - { offsetInCU: 0x12603, offset: 0x12603, size: 0x8, addend: 0x0, symName: __ZNSt3__114__split_bufferIP8EmployeeRNS_9allocatorIS2_EEE17__destruct_at_endB7v160006EPS2_, symObjAddr: 0x43F0, symBinAddr: 0x100005850, symSize: 0x2C }
  - { offsetInCU: 0x12635, offset: 0x12635, size: 0x8, addend: 0x0, symName: __ZNSt3__114__split_bufferIP8EmployeeRNS_9allocatorIS2_EEE17__destruct_at_endB7v160006EPS2_NS_17integral_constantIbLb0EEE, symObjAddr: 0x441C, symBinAddr: 0x10000587C, symSize: 0x94 }
  - { offsetInCU: 0x12675, offset: 0x12675, size: 0x8, addend: 0x0, symName: __ZNSt3__116allocator_traitsINS_9allocatorIP8EmployeeEEE7destroyB7v160006IS3_vEEvRS4_PT_, symObjAddr: 0x44B0, symBinAddr: 0x100005910, symSize: 0x2C }
  - { offsetInCU: 0x126B2, offset: 0x126B2, size: 0x8, addend: 0x0, symName: __ZNSt3__19allocatorIP8EmployeeE7destroyB7v160006EPS2_, symObjAddr: 0x44DC, symBinAddr: 0x10000593C, symSize: 0x14 }
  - { offsetInCU: 0x126E5, offset: 0x126E5, size: 0x8, addend: 0x0, symName: __ZNSt3__19allocatorIP8EmployeeE10deallocateB7v160006EPS2_m, symObjAddr: 0x44F0, symBinAddr: 0x100005950, symSize: 0x70 }
  - { offsetInCU: 0x12726, offset: 0x12726, size: 0x8, addend: 0x0, symName: __ZNKSt3__114__split_bufferIP8EmployeeRNS_9allocatorIS2_EEE9__end_capB7v160006Ev, symObjAddr: 0x45DC, symBinAddr: 0x100005A3C, symSize: 0x28 }
  - { offsetInCU: 0x1274B, offset: 0x1274B, size: 0x8, addend: 0x0, symName: __ZNKSt3__117__compressed_pairIPP8EmployeeRNS_9allocatorIS2_EEE5firstB7v160006Ev, symObjAddr: 0x4604, symBinAddr: 0x100005A64, symSize: 0x24 }
  - { offsetInCU: 0x12770, offset: 0x12770, size: 0x8, addend: 0x0, symName: __ZNKSt3__112basic_stringIcNS_11char_traitsIcEENS_9allocatorIcEEE4sizeB7v160006Ev, symObjAddr: 0x4628, symBinAddr: 0x100005A88, symSize: 0x54 }
  - { offsetInCU: 0x12795, offset: 0x12795, size: 0x8, addend: 0x0, symName: __ZNKSt3__112basic_stringIcNS_11char_traitsIcEENS_9allocatorIcEEE4dataB7v160006Ev, symObjAddr: 0x467C, symBinAddr: 0x100005ADC, symSize: 0x28 }
  - { offsetInCU: 0x127BA, offset: 0x127BA, size: 0x8, addend: 0x0, symName: __ZNKSt3__112basic_stringIcNS_11char_traitsIcEENS_9allocatorIcEEE9__is_longB7v160006Ev, symObjAddr: 0x46A4, symBinAddr: 0x100005B04, symSize: 0x74 }
  - { offsetInCU: 0x127DF, offset: 0x127DF, size: 0x8, addend: 0x0, symName: __ZNSt3__111char_traitsIcE7compareEPKcS3_m, symObjAddr: 0x4718, symBinAddr: 0x100005B78, symSize: 0x80 }
  - { offsetInCU: 0x1281E, offset: 0x1281E, size: 0x8, addend: 0x0, symName: __ZNKSt3__112basic_stringIcNS_11char_traitsIcEENS_9allocatorIcEEE15__get_long_sizeB7v160006Ev, symObjAddr: 0x4798, symBinAddr: 0x100005BF8, symSize: 0x28 }
  - { offsetInCU: 0x12843, offset: 0x12843, size: 0x8, addend: 0x0, symName: __ZNKSt3__112basic_stringIcNS_11char_traitsIcEENS_9allocatorIcEEE16__get_short_sizeB7v160006Ev, symObjAddr: 0x47C0, symBinAddr: 0x100005C20, symSize: 0x34 }
  - { offsetInCU: 0x12868, offset: 0x12868, size: 0x8, addend: 0x0, symName: __ZNKSt3__117__compressed_pairINS_12basic_stringIcNS_11char_traitsIcEENS_9allocatorIcEEE5__repES5_E5firstB7v160006Ev, symObjAddr: 0x47F4, symBinAddr: 0x100005C54, symSize: 0x24 }
  - { offsetInCU: 0x1288D, offset: 0x1288D, size: 0x8, addend: 0x0, symName: __ZNKSt3__122__compressed_pair_elemINS_12basic_stringIcNS_11char_traitsIcEENS_9allocatorIcEEE5__repELi0ELb0EE5__getB7v160006Ev, symObjAddr: 0x4818, symBinAddr: 0x100005C78, symSize: 0x14 }
  - { offsetInCU: 0x128B2, offset: 0x128B2, size: 0x8, addend: 0x0, symName: __ZNKSt3__112basic_stringIcNS_11char_traitsIcEENS_9allocatorIcEEE13__get_pointerB7v160006Ev, symObjAddr: 0x4840, symBinAddr: 0x100005CA0, symSize: 0x54 }
  - { offsetInCU: 0x128D7, offset: 0x128D7, size: 0x8, addend: 0x0, symName: __ZNKSt3__112basic_stringIcNS_11char_traitsIcEENS_9allocatorIcEEE18__get_long_pointerB7v160006Ev, symObjAddr: 0x4894, symBinAddr: 0x100005CF4, symSize: 0x28 }
  - { offsetInCU: 0x128FC, offset: 0x128FC, size: 0x8, addend: 0x0, symName: __ZNKSt3__112basic_stringIcNS_11char_traitsIcEENS_9allocatorIcEEE19__get_short_pointerB7v160006Ev, symObjAddr: 0x48BC, symBinAddr: 0x100005D1C, symSize: 0x28 }
  - { offsetInCU: 0x12921, offset: 0x12921, size: 0x8, addend: 0x0, symName: __ZNSt3__114pointer_traitsIPKcE10pointer_toB7v160006ERS1_, symObjAddr: 0x48E4, symBinAddr: 0x100005D44, symSize: 0x14 }
  - { offsetInCU: 0x12944, offset: 0x12944, size: 0x8, addend: 0x0, symName: __ZNSt3__16vectorI10ProgrammerNS_9allocatorIS1_EEE9__end_capB7v160006Ev, symObjAddr: 0x492C, symBinAddr: 0x100005D8C, symSize: 0x28 }
  - { offsetInCU: 0x12969, offset: 0x12969, size: 0x8, addend: 0x0, symName: __ZNSt3__16vectorI10ProgrammerNS_9allocatorIS1_EEE22__construct_one_at_endB7v160006IJRKS1_EEEvDpOT_, symObjAddr: 0x4954, symBinAddr: 0x100005DB4, symSize: 0x98 }
  - { offsetInCU: 0x129B6, offset: 0x129B6, size: 0x8, addend: 0x0, symName: __ZNSt3__16vectorI10ProgrammerNS_9allocatorIS1_EEE21__push_back_slow_pathIRKS1_EEvOT_, symObjAddr: 0x49EC, symBinAddr: 0x100005E4C, symSize: 0xE0 }
  - { offsetInCU: 0x12A13, offset: 0x12A13, size: 0x8, addend: 0x0, symName: __ZNSt3__117__compressed_pairIP10ProgrammerNS_9allocatorIS1_EEE5firstB7v160006Ev, symObjAddr: 0x4ACC, symBinAddr: 0x100005F2C, symSize: 0x24 }
  - { offsetInCU: 0x12A38, offset: 0x12A38, size: 0x8, addend: 0x0, symName: __ZNSt3__122__compressed_pair_elemIP10ProgrammerLi0ELb0EE5__getB7v160006Ev, symObjAddr: 0x4AF0, symBinAddr: 0x100005F50, symSize: 0x14 }
  - { offsetInCU: 0x12A76, offset: 0x12A76, size: 0x8, addend: 0x0, symName: __ZNSt3__16vectorI10ProgrammerNS_9allocatorIS1_EEE21_ConstructTransactionC1B7v160006ERS4_m, symObjAddr: 0x4B04, symBinAddr: 0x100005F64, symSize: 0x3C }
  - { offsetInCU: 0x12ABC, offset: 0x12ABC, size: 0x8, addend: 0x0, symName: __ZNSt3__116allocator_traitsINS_9allocatorI10ProgrammerEEE9constructB7v160006IS2_JRKS2_EvEEvRS3_PT_DpOT0_, symObjAddr: 0x4B40, symBinAddr: 0x100005FA0, symSize: 0x34 }
  - { offsetInCU: 0x12B13, offset: 0x12B13, size: 0x8, addend: 0x0, symName: __ZNSt3__16vectorI10ProgrammerNS_9allocatorIS1_EEE7__allocB7v160006Ev, symObjAddr: 0x4B74, symBinAddr: 0x100005FD4, symSize: 0x28 }
  - { offsetInCU: 0x12B38, offset: 0x12B38, size: 0x8, addend: 0x0, symName: __ZNSt3__16vectorI10ProgrammerNS_9allocatorIS1_EEE21_ConstructTransactionD1B7v160006Ev, symObjAddr: 0x4BB0, symBinAddr: 0x100006010, symSize: 0x2C }
  - { offsetInCU: 0x12B60, offset: 0x12B60, size: 0x8, addend: 0x0, symName: __ZNSt3__16vectorI10ProgrammerNS_9allocatorIS1_EEE21_ConstructTransactionC2B7v160006ERS4_m, symObjAddr: 0x4BDC, symBinAddr: 0x10000603C, symSize: 0x4C }
  - { offsetInCU: 0x12BA7, offset: 0x12BA7, size: 0x8, addend: 0x0, symName: __ZNSt3__19allocatorI10ProgrammerE9constructB7v160006IS1_JRKS1_EEEvPT_DpOT0_, symObjAddr: 0x4C28, symBinAddr: 0x100006088, symSize: 0x30 }
  - { offsetInCU: 0x12BFC, offset: 0x12BFC, size: 0x8, addend: 0x0, symName: __ZNSt3__117__compressed_pairIP10ProgrammerNS_9allocatorIS1_EEE6secondB7v160006Ev, symObjAddr: 0x4C58, symBinAddr: 0x1000060B8, symSize: 0x24 }
  - { offsetInCU: 0x12C21, offset: 0x12C21, size: 0x8, addend: 0x0, symName: __ZNSt3__122__compressed_pair_elemINS_9allocatorI10ProgrammerEELi1ELb1EE5__getB7v160006Ev, symObjAddr: 0x4C7C, symBinAddr: 0x1000060DC, symSize: 0x14 }
  - { offsetInCU: 0x12C46, offset: 0x12C46, size: 0x8, addend: 0x0, symName: __ZNSt3__16vectorI10ProgrammerNS_9allocatorIS1_EEE21_ConstructTransactionD2B7v160006Ev, symObjAddr: 0x4C90, symBinAddr: 0x1000060F0, symSize: 0x20 }
  - { offsetInCU: 0x12C6E, offset: 0x12C6E, size: 0x8, addend: 0x0, symName: __ZNKSt3__16vectorI10ProgrammerNS_9allocatorIS1_EEE11__recommendB7v160006Em, symObjAddr: 0x4CB0, symBinAddr: 0x100006110, symSize: 0xB4 }
  - { offsetInCU: 0x12CC2, offset: 0x12CC2, size: 0x8, addend: 0x0, symName: __ZNSt3__114__split_bufferI10ProgrammerRNS_9allocatorIS1_EEEC1EmmS4_, symObjAddr: 0x4D64, symBinAddr: 0x1000061C4, symSize: 0x44 }
  - { offsetInCU: 0x12D17, offset: 0x12D17, size: 0x8, addend: 0x0, symName: __ZNSt3__114__split_bufferI10ProgrammerRNS_9allocatorIS1_EEED1Ev, symObjAddr: 0x4EC0, symBinAddr: 0x100006320, symSize: 0x2C }
  - { offsetInCU: 0x12D41, offset: 0x12D41, size: 0x8, addend: 0x0, symName: __ZNKSt3__16vectorI10ProgrammerNS_9allocatorIS1_EEE8max_sizeEv, symObjAddr: 0x4EEC, symBinAddr: 0x10000634C, symSize: 0x74 }
  - { offsetInCU: 0x12D68, offset: 0x12D68, size: 0x8, addend: 0x0, symName: __ZNKSt3__16vectorI10ProgrammerNS_9allocatorIS1_EEE20__throw_length_errorB7v160006Ev, symObjAddr: 0x4F60, symBinAddr: 0x1000063C0, symSize: 0x1C }
  - { offsetInCU: 0x12D8D, offset: 0x12D8D, size: 0x8, addend: 0x0, symName: __ZNKSt3__16vectorI10ProgrammerNS_9allocatorIS1_EEE8capacityB7v160006Ev, symObjAddr: 0x4F7C, symBinAddr: 0x1000063DC, symSize: 0x40 }
  - { offsetInCU: 0x12DBC, offset: 0x12DBC, size: 0x8, addend: 0x0, symName: __ZNSt3__116allocator_traitsINS_9allocatorI10ProgrammerEEE8max_sizeB7v160006IS3_vEEmRKS3_, symObjAddr: 0x4FBC, symBinAddr: 0x10000641C, symSize: 0x24 }
  - { offsetInCU: 0x12DEA, offset: 0x12DEA, size: 0x8, addend: 0x0, symName: __ZNKSt3__16vectorI10ProgrammerNS_9allocatorIS1_EEE7__allocB7v160006Ev, symObjAddr: 0x4FE0, symBinAddr: 0x100006440, symSize: 0x28 }
  - { offsetInCU: 0x12E0F, offset: 0x12E0F, size: 0x8, addend: 0x0, symName: __ZNKSt3__19allocatorI10ProgrammerE8max_sizeB7v160006Ev, symObjAddr: 0x5008, symBinAddr: 0x100006468, symSize: 0x20 }
  - { offsetInCU: 0x12E34, offset: 0x12E34, size: 0x8, addend: 0x0, symName: __ZNKSt3__117__compressed_pairIP10ProgrammerNS_9allocatorIS1_EEE6secondB7v160006Ev, symObjAddr: 0x5028, symBinAddr: 0x100006488, symSize: 0x24 }
  - { offsetInCU: 0x12E59, offset: 0x12E59, size: 0x8, addend: 0x0, symName: __ZNKSt3__122__compressed_pair_elemINS_9allocatorI10ProgrammerEELi1ELb1EE5__getB7v160006Ev, symObjAddr: 0x504C, symBinAddr: 0x1000064AC, symSize: 0x14 }
  - { offsetInCU: 0x12E7E, offset: 0x12E7E, size: 0x8, addend: 0x0, symName: __ZNKSt3__16vectorI10ProgrammerNS_9allocatorIS1_EEE9__end_capB7v160006Ev, symObjAddr: 0x5060, symBinAddr: 0x1000064C0, symSize: 0x28 }
  - { offsetInCU: 0x12EA3, offset: 0x12EA3, size: 0x8, addend: 0x0, symName: __ZNKSt3__117__compressed_pairIP10ProgrammerNS_9allocatorIS1_EEE5firstB7v160006Ev, symObjAddr: 0x5088, symBinAddr: 0x1000064E8, symSize: 0x24 }
  - { offsetInCU: 0x12EC8, offset: 0x12EC8, size: 0x8, addend: 0x0, symName: __ZNKSt3__122__compressed_pair_elemIP10ProgrammerLi0ELb0EE5__getB7v160006Ev, symObjAddr: 0x50AC, symBinAddr: 0x10000650C, symSize: 0x14 }
  - { offsetInCU: 0x12EED, offset: 0x12EED, size: 0x8, addend: 0x0, symName: __ZNSt3__114__split_bufferI10ProgrammerRNS_9allocatorIS1_EEEC2EmmS4_, symObjAddr: 0x50C0, symBinAddr: 0x100006520, symSize: 0xE0 }
  - { offsetInCU: 0x12F60, offset: 0x12F60, size: 0x8, addend: 0x0, symName: __ZNSt3__117__compressed_pairIP10ProgrammerRNS_9allocatorIS1_EEEC1B7v160006IDnS5_EEOT_OT0_, symObjAddr: 0x51A0, symBinAddr: 0x100006600, symSize: 0x3C }
  - { offsetInCU: 0x12FB6, offset: 0x12FB6, size: 0x8, addend: 0x0, symName: __ZNSt3__114__split_bufferI10ProgrammerRNS_9allocatorIS1_EEE7__allocB7v160006Ev, symObjAddr: 0x521C, symBinAddr: 0x10000667C, symSize: 0x28 }
  - { offsetInCU: 0x12FDB, offset: 0x12FDB, size: 0x8, addend: 0x0, symName: __ZNSt3__114__split_bufferI10ProgrammerRNS_9allocatorIS1_EEE9__end_capB7v160006Ev, symObjAddr: 0x5244, symBinAddr: 0x1000066A4, symSize: 0x28 }
  - { offsetInCU: 0x13000, offset: 0x13000, size: 0x8, addend: 0x0, symName: __ZNSt3__117__compressed_pairIP10ProgrammerRNS_9allocatorIS1_EEEC2B7v160006IDnS5_EEOT_OT0_, symObjAddr: 0x526C, symBinAddr: 0x1000066CC, symSize: 0x48 }
  - { offsetInCU: 0x13056, offset: 0x13056, size: 0x8, addend: 0x0, symName: __ZNSt3__122__compressed_pair_elemIRNS_9allocatorI10ProgrammerEELi1ELb0EEC2B7v160006IS4_vEEOT_, symObjAddr: 0x52B4, symBinAddr: 0x100006714, symSize: 0x20 }
  - { offsetInCU: 0x13097, offset: 0x13097, size: 0x8, addend: 0x0, symName: __ZNSt3__19allocatorI10ProgrammerE8allocateB7v160006Em, symObjAddr: 0x52D4, symBinAddr: 0x100006734, symSize: 0x8C }
  - { offsetInCU: 0x130CA, offset: 0x130CA, size: 0x8, addend: 0x0, symName: __ZNSt3__117__compressed_pairIP10ProgrammerRNS_9allocatorIS1_EEE6secondB7v160006Ev, symObjAddr: 0x5360, symBinAddr: 0x1000067C0, symSize: 0x28 }
  - { offsetInCU: 0x130EF, offset: 0x130EF, size: 0x8, addend: 0x0, symName: __ZNSt3__122__compressed_pair_elemIRNS_9allocatorI10ProgrammerEELi1ELb0EE5__getB7v160006Ev, symObjAddr: 0x5388, symBinAddr: 0x1000067E8, symSize: 0x18 }
  - { offsetInCU: 0x13114, offset: 0x13114, size: 0x8, addend: 0x0, symName: __ZNSt3__117__compressed_pairIP10ProgrammerRNS_9allocatorIS1_EEE5firstB7v160006Ev, symObjAddr: 0x53A0, symBinAddr: 0x100006800, symSize: 0x24 }
  - { offsetInCU: 0x13139, offset: 0x13139, size: 0x8, addend: 0x0, symName: __ZNKSt3__16vectorI10ProgrammerNS_9allocatorIS1_EEE17__annotate_deleteB7v160006Ev, symObjAddr: 0x53C4, symBinAddr: 0x100006824, symSize: 0xD4 }
  - { offsetInCU: 0x1315E, offset: 0x1315E, size: 0x8, addend: 0x0, symName: __ZNSt3__116reverse_iteratorIP10ProgrammerEC1B7v160006ES2_, symObjAddr: 0x55CC, symBinAddr: 0x100006A2C, symSize: 0x34 }
  - { offsetInCU: 0x13194, offset: 0x13194, size: 0x8, addend: 0x0, symName: __ZNKSt3__116reverse_iteratorIP10ProgrammerE4baseB7v160006Ev, symObjAddr: 0x5600, symBinAddr: 0x100006A60, symSize: 0x18 }
  - { offsetInCU: 0x131B9, offset: 0x131B9, size: 0x8, addend: 0x0, symName: __ZNKSt3__16vectorI10ProgrammerNS_9allocatorIS1_EEE14__annotate_newB7v160006Em, symObjAddr: 0x5654, symBinAddr: 0x100006AB4, symSize: 0xC8 }
  - { offsetInCU: 0x131ED, offset: 0x131ED, size: 0x8, addend: 0x0, symName: __ZNKSt3__16vectorI10ProgrammerNS_9allocatorIS1_EEE31__annotate_contiguous_containerB7v160006EPKvS6_S6_S6_, symObjAddr: 0x572C, symBinAddr: 0x100006B8C, symSize: 0x20 }
  - { offsetInCU: 0x1323E, offset: 0x1323E, size: 0x8, addend: 0x0, symName: __ZNKSt3__16vectorI10ProgrammerNS_9allocatorIS1_EEE4dataB7v160006Ev, symObjAddr: 0x574C, symBinAddr: 0x100006BAC, symSize: 0x28 }
  - { offsetInCU: 0x13263, offset: 0x13263, size: 0x8, addend: 0x0, symName: __ZNSt3__129_AllocatorDestroyRangeReverseINS_9allocatorI10ProgrammerEENS_16reverse_iteratorIPS2_EEEC1B7v160006ERS3_RS6_S9_, symObjAddr: 0x57C0, symBinAddr: 0x100006C20, symSize: 0x44 }
  - { offsetInCU: 0x132B8, offset: 0x132B8, size: 0x8, addend: 0x0, symName: __ZNKSt3__116reverse_iteratorIP10ProgrammerEdeB7v160006Ev, symObjAddr: 0x5870, symBinAddr: 0x100006CD0, symSize: 0x28 }
  - { offsetInCU: 0x132EB, offset: 0x132EB, size: 0x8, addend: 0x0, symName: __ZNSt3__116reverse_iteratorIP10ProgrammerEppB7v160006Ev, symObjAddr: 0x5898, symBinAddr: 0x100006CF8, symSize: 0x20 }
  - { offsetInCU: 0x13310, offset: 0x13310, size: 0x8, addend: 0x0, symName: __ZNSt3__128__exception_guard_exceptionsINS_29_AllocatorDestroyRangeReverseINS_9allocatorI10ProgrammerEENS_16reverse_iteratorIPS3_EEEEE10__completeB7v160006Ev, symObjAddr: 0x58B8, symBinAddr: 0x100006D18, symSize: 0x1C }
  - { offsetInCU: 0x13335, offset: 0x13335, size: 0x8, addend: 0x0, symName: __ZNSt3__128__exception_guard_exceptionsINS_29_AllocatorDestroyRangeReverseINS_9allocatorI10ProgrammerEENS_16reverse_iteratorIPS3_EEEEED1B7v160006Ev, symObjAddr: 0x58D4, symBinAddr: 0x100006D34, symSize: 0x2C }
  - { offsetInCU: 0x1335D, offset: 0x1335D, size: 0x8, addend: 0x0, symName: __ZNSt3__128__exception_guard_exceptionsINS_29_AllocatorDestroyRangeReverseINS_9allocatorI10ProgrammerEENS_16reverse_iteratorIPS3_EEEEEC1B7v160006ES8_, symObjAddr: 0x5900, symBinAddr: 0x100006D60, symSize: 0x34 }
  - { offsetInCU: 0x13394, offset: 0x13394, size: 0x8, addend: 0x0, symName: __ZNSt3__128__exception_guard_exceptionsINS_29_AllocatorDestroyRangeReverseINS_9allocatorI10ProgrammerEENS_16reverse_iteratorIPS3_EEEEEC2B7v160006ES8_, symObjAddr: 0x5934, symBinAddr: 0x100006D94, symSize: 0x30 }
  - { offsetInCU: 0x133CC, offset: 0x133CC, size: 0x8, addend: 0x0, symName: __ZNSt3__129_AllocatorDestroyRangeReverseINS_9allocatorI10ProgrammerEENS_16reverse_iteratorIPS2_EEEC2B7v160006ERS3_RS6_S9_, symObjAddr: 0x5964, symBinAddr: 0x100006DC4, symSize: 0x38 }
  - { offsetInCU: 0x13427, offset: 0x13427, size: 0x8, addend: 0x0, symName: __ZNSt3__119__to_address_helperINS_16reverse_iteratorIP10ProgrammerEEvE6__callB7v160006ERKS4_, symObjAddr: 0x599C, symBinAddr: 0x100006DFC, symSize: 0x4C }
  - { offsetInCU: 0x1344A, offset: 0x1344A, size: 0x8, addend: 0x0, symName: __ZNKSt3__116reverse_iteratorIP10ProgrammerEptB7v160006Ev, symObjAddr: 0x59E8, symBinAddr: 0x100006E48, symSize: 0x24 }
  - { offsetInCU: 0x1346F, offset: 0x1346F, size: 0x8, addend: 0x0, symName: __ZNSt3__128__exception_guard_exceptionsINS_29_AllocatorDestroyRangeReverseINS_9allocatorI10ProgrammerEENS_16reverse_iteratorIPS3_EEEEED2B7v160006Ev, symObjAddr: 0x5A0C, symBinAddr: 0x100006E6C, symSize: 0x48 }
  - { offsetInCU: 0x13497, offset: 0x13497, size: 0x8, addend: 0x0, symName: __ZNKSt3__129_AllocatorDestroyRangeReverseINS_9allocatorI10ProgrammerEENS_16reverse_iteratorIPS2_EEEclB7v160006Ev, symObjAddr: 0x5A54, symBinAddr: 0x100006EB4, symSize: 0xB4 }
  - { offsetInCU: 0x134BD, offset: 0x134BD, size: 0x8, addend: 0x0, symName: __ZNSt3__116reverse_iteratorINS0_IP10ProgrammerEEEC1B7v160006ES3_, symObjAddr: 0x5B78, symBinAddr: 0x100006FD8, symSize: 0x3C }
  - { offsetInCU: 0x134F3, offset: 0x134F3, size: 0x8, addend: 0x0, symName: __ZNSt3__116allocator_traitsINS_9allocatorI10ProgrammerEEE7destroyB7v160006IS2_vEEvRS3_PT_, symObjAddr: 0x5C14, symBinAddr: 0x100007074, symSize: 0x2C }
  - { offsetInCU: 0x13530, offset: 0x13530, size: 0x8, addend: 0x0, symName: __ZNSt3__116reverse_iteratorINS0_IP10ProgrammerEEEppB7v160006Ev, symObjAddr: 0x5C64, symBinAddr: 0x1000070C4, symSize: 0x30 }
  - { offsetInCU: 0x13555, offset: 0x13555, size: 0x8, addend: 0x0, symName: __ZNKSt3__116reverse_iteratorINS0_IP10ProgrammerEEE4baseB7v160006Ev, symObjAddr: 0x5C94, symBinAddr: 0x1000070F4, symSize: 0x24 }
  - { offsetInCU: 0x1357A, offset: 0x1357A, size: 0x8, addend: 0x0, symName: __ZNSt3__19allocatorI10ProgrammerE7destroyB7v160006EPS1_, symObjAddr: 0x5CB8, symBinAddr: 0x100007118, symSize: 0x28 }
  - { offsetInCU: 0x135B2, offset: 0x135B2, size: 0x8, addend: 0x0, symName: __ZNSt3__119__to_address_helperINS_16reverse_iteratorINS1_IP10ProgrammerEEEEvE6__callB7v160006ERKS5_, symObjAddr: 0x5CE0, symBinAddr: 0x100007140, symSize: 0x4C }
  - { offsetInCU: 0x135D5, offset: 0x135D5, size: 0x8, addend: 0x0, symName: __ZNKSt3__116reverse_iteratorINS0_IP10ProgrammerEEEptB7v160006Ev, symObjAddr: 0x5D2C, symBinAddr: 0x10000718C, symSize: 0x24 }
  - { offsetInCU: 0x135FA, offset: 0x135FA, size: 0x8, addend: 0x0, symName: __ZNKSt3__116reverse_iteratorINS0_IP10ProgrammerEEEdeB7v160006Ev, symObjAddr: 0x5D50, symBinAddr: 0x1000071B0, symSize: 0x34 }
  - { offsetInCU: 0x1362D, offset: 0x1362D, size: 0x8, addend: 0x0, symName: __ZNSt3__116reverse_iteratorIP10ProgrammerEmmB7v160006Ev, symObjAddr: 0x5D84, symBinAddr: 0x1000071E4, symSize: 0x20 }
  - { offsetInCU: 0x13652, offset: 0x13652, size: 0x8, addend: 0x0, symName: __ZNSt3__116reverse_iteratorINS0_IP10ProgrammerEEEC2B7v160006ES3_, symObjAddr: 0x5DA4, symBinAddr: 0x100007204, symSize: 0x2C }
  - { offsetInCU: 0x13689, offset: 0x13689, size: 0x8, addend: 0x0, symName: __ZNSt3__116reverse_iteratorIP10ProgrammerEC2B7v160006ES2_, symObjAddr: 0x5DD0, symBinAddr: 0x100007230, symSize: 0x28 }
  - { offsetInCU: 0x136C0, offset: 0x136C0, size: 0x8, addend: 0x0, symName: __ZNSt3__114__split_bufferI10ProgrammerRNS_9allocatorIS1_EEED2Ev, symObjAddr: 0x5DF8, symBinAddr: 0x100007258, symSize: 0x80 }
  - { offsetInCU: 0x136EB, offset: 0x136EB, size: 0x8, addend: 0x0, symName: __ZNSt3__114__split_bufferI10ProgrammerRNS_9allocatorIS1_EEE5clearB7v160006Ev, symObjAddr: 0x5E78, symBinAddr: 0x1000072D8, symSize: 0x28 }
  - { offsetInCU: 0x13710, offset: 0x13710, size: 0x8, addend: 0x0, symName: __ZNSt3__116allocator_traitsINS_9allocatorI10ProgrammerEEE10deallocateB7v160006ERS3_PS2_m, symObjAddr: 0x5EA0, symBinAddr: 0x100007300, symSize: 0x34 }
  - { offsetInCU: 0x13752, offset: 0x13752, size: 0x8, addend: 0x0, symName: __ZNKSt3__114__split_bufferI10ProgrammerRNS_9allocatorIS1_EEE8capacityB7v160006Ev, symObjAddr: 0x5ED4, symBinAddr: 0x100007334, symSize: 0x40 }
  - { offsetInCU: 0x13777, offset: 0x13777, size: 0x8, addend: 0x0, symName: __ZNSt3__114__split_bufferI10ProgrammerRNS_9allocatorIS1_EEE17__destruct_at_endB7v160006EPS1_, symObjAddr: 0x5F14, symBinAddr: 0x100007374, symSize: 0x2C }
  - { offsetInCU: 0x137A9, offset: 0x137A9, size: 0x8, addend: 0x0, symName: __ZNSt3__114__split_bufferI10ProgrammerRNS_9allocatorIS1_EEE17__destruct_at_endB7v160006EPS1_NS_17integral_constantIbLb0EEE, symObjAddr: 0x5F40, symBinAddr: 0x1000073A0, symSize: 0x94 }
  - { offsetInCU: 0x137E9, offset: 0x137E9, size: 0x8, addend: 0x0, symName: __ZNSt3__19allocatorI10ProgrammerE10deallocateB7v160006EPS1_m, symObjAddr: 0x5FD4, symBinAddr: 0x100007434, symSize: 0x74 }
  - { offsetInCU: 0x1382A, offset: 0x1382A, size: 0x8, addend: 0x0, symName: __ZNKSt3__114__split_bufferI10ProgrammerRNS_9allocatorIS1_EEE9__end_capB7v160006Ev, symObjAddr: 0x6048, symBinAddr: 0x1000074A8, symSize: 0x28 }
  - { offsetInCU: 0x1384F, offset: 0x1384F, size: 0x8, addend: 0x0, symName: __ZNKSt3__117__compressed_pairIP10ProgrammerRNS_9allocatorIS1_EEE5firstB7v160006Ev, symObjAddr: 0x6070, symBinAddr: 0x1000074D0, symSize: 0x24 }
  - { offsetInCU: 0x13874, offset: 0x13874, size: 0x8, addend: 0x0, symName: __ZNSt3__16vectorI8EmployeeNS_9allocatorIS1_EEE11__make_iterB7v160006EPS1_, symObjAddr: 0x6094, symBinAddr: 0x1000074F4, symSize: 0x34 }
  - { offsetInCU: 0x138A8, offset: 0x138A8, size: 0x8, addend: 0x0, symName: __ZNSt3__111__wrap_iterIP8EmployeeEC1B7v160006EPKvS2_, symObjAddr: 0x60C8, symBinAddr: 0x100007528, symSize: 0x3C }
  - { offsetInCU: 0x138EC, offset: 0x138EC, size: 0x8, addend: 0x0, symName: __ZNSt3__111__wrap_iterIP8EmployeeEC2B7v160006EPKvS2_, symObjAddr: 0x6104, symBinAddr: 0x100007564, symSize: 0x24 }
  - { offsetInCU: 0x13931, offset: 0x13931, size: 0x8, addend: 0x0, symName: __ZNSt3__111__wrap_iterIP8EmployeeEpLB7v160006El, symObjAddr: 0x6128, symBinAddr: 0x100007588, symSize: 0x30 }
  - { offsetInCU: 0x13964, offset: 0x13964, size: 0x8, addend: 0x0, symName: __ZNKSt3__16vectorI8EmployeeNS_9allocatorIS1_EEE6cbeginB7v160006Ev, symObjAddr: 0x61A0, symBinAddr: 0x100007600, symSize: 0x2C }
  - { offsetInCU: 0x13989, offset: 0x13989, size: 0x8, addend: 0x0, symName: __ZNSt3__16vectorI8EmployeeNS_9allocatorIS1_EEE17__destruct_at_endB7v160006EPS1_, symObjAddr: 0x61CC, symBinAddr: 0x10000762C, symSize: 0x88 }
  - { offsetInCU: 0x139CC, offset: 0x139CC, size: 0x8, addend: 0x0, symName: __ZNSt3__16vectorI8EmployeeNS_9allocatorIS1_EEE27__invalidate_iterators_pastB7v160006EPS1_, symObjAddr: 0x6294, symBinAddr: 0x1000076F4, symSize: 0x14 }
  - { offsetInCU: 0x13A02, offset: 0x13A02, size: 0x8, addend: 0x0, symName: __ZNKSt3__111__wrap_iterIPK8EmployeeE4baseB7v160006Ev, symObjAddr: 0x62A8, symBinAddr: 0x100007708, symSize: 0x18 }
  - { offsetInCU: 0x13A26, offset: 0x13A26, size: 0x8, addend: 0x0, symName: __ZNKSt3__16vectorI8EmployeeNS_9allocatorIS1_EEE5beginB7v160006Ev, symObjAddr: 0x62C0, symBinAddr: 0x100007720, symSize: 0x30 }
  - { offsetInCU: 0x13A4D, offset: 0x13A4D, size: 0x8, addend: 0x0, symName: __ZNKSt3__16vectorI8EmployeeNS_9allocatorIS1_EEE11__make_iterB7v160006EPKS1_, symObjAddr: 0x62F0, symBinAddr: 0x100007750, symSize: 0x34 }
  - { offsetInCU: 0x13A81, offset: 0x13A81, size: 0x8, addend: 0x0, symName: __ZNSt3__111__wrap_iterIPK8EmployeeEC1B7v160006EPKvS3_, symObjAddr: 0x6324, symBinAddr: 0x100007784, symSize: 0x3C }
  - { offsetInCU: 0x13AC5, offset: 0x13AC5, size: 0x8, addend: 0x0, symName: __ZNSt3__111__wrap_iterIPK8EmployeeEC2B7v160006EPKvS3_, symObjAddr: 0x6360, symBinAddr: 0x1000077C0, symSize: 0x24 }
  - { offsetInCU: 0x13B0A, offset: 0x13B0A, size: 0x8, addend: 0x0, symName: __ZNSt3__16vectorI8EmployeeNS_9allocatorIS1_EEE22__base_destruct_at_endB7v160006EPS1_, symObjAddr: 0x6384, symBinAddr: 0x1000077E4, symSize: 0xA0 }
  - { offsetInCU: 0x13B4D, offset: 0x13B4D, size: 0x8, addend: 0x0, symName: __ZNKSt3__16vectorI8EmployeeNS_9allocatorIS1_EEE17__annotate_shrinkB7v160006Em, symObjAddr: 0x6424, symBinAddr: 0x100007884, symSize: 0xD0 }
  - { offsetInCU: 0x13B81, offset: 0x13B81, size: 0x8, addend: 0x0, symName: __ZNSt3__116allocator_traitsINS_9allocatorI8EmployeeEEE7destroyB7v160006IS2_vEEvRS3_PT_, symObjAddr: 0x64F4, symBinAddr: 0x100007954, symSize: 0x2C }
  - { offsetInCU: 0x13BBE, offset: 0x13BBE, size: 0x8, addend: 0x0, symName: __ZNSt3__16vectorI8EmployeeNS_9allocatorIS1_EEE7__allocB7v160006Ev, symObjAddr: 0x6520, symBinAddr: 0x100007980, symSize: 0x28 }
  - { offsetInCU: 0x13BE3, offset: 0x13BE3, size: 0x8, addend: 0x0, symName: __ZNSt3__19allocatorI8EmployeeE7destroyB7v160006EPS1_, symObjAddr: 0x655C, symBinAddr: 0x1000079BC, symSize: 0x28 }
  - { offsetInCU: 0x13C16, offset: 0x13C16, size: 0x8, addend: 0x0, symName: __ZN8EmployeeD1Ev, symObjAddr: 0x6584, symBinAddr: 0x1000079E4, symSize: 0x2C }
  - { offsetInCU: 0x13C40, offset: 0x13C40, size: 0x8, addend: 0x0, symName: __ZNSt3__117__compressed_pairIP8EmployeeNS_9allocatorIS1_EEE6secondB7v160006Ev, symObjAddr: 0x65B0, symBinAddr: 0x100007A10, symSize: 0x24 }
  - { offsetInCU: 0x13C65, offset: 0x13C65, size: 0x8, addend: 0x0, symName: __ZNSt3__122__compressed_pair_elemINS_9allocatorI8EmployeeEELi1ELb1EE5__getB7v160006Ev, symObjAddr: 0x65D4, symBinAddr: 0x100007A34, symSize: 0x14 }
  - { offsetInCU: 0x13C8A, offset: 0x13C8A, size: 0x8, addend: 0x0, symName: __ZNKSt3__16vectorI8EmployeeNS_9allocatorIS1_EEE31__annotate_contiguous_containerB7v160006EPKvS6_S6_S6_, symObjAddr: 0x65E8, symBinAddr: 0x100007A48, symSize: 0x20 }
  - { offsetInCU: 0x13CDB, offset: 0x13CDB, size: 0x8, addend: 0x0, symName: __ZNKSt3__16vectorI8EmployeeNS_9allocatorIS1_EEE4dataB7v160006Ev, symObjAddr: 0x6608, symBinAddr: 0x100007A68, symSize: 0x28 }
  - { offsetInCU: 0x13D00, offset: 0x13D00, size: 0x8, addend: 0x0, symName: __ZNKSt3__16vectorI8EmployeeNS_9allocatorIS1_EEE8capacityB7v160006Ev, symObjAddr: 0x6630, symBinAddr: 0x100007A90, symSize: 0x40 }
  - { offsetInCU: 0x13D25, offset: 0x13D25, size: 0x8, addend: 0x0, symName: __ZNKSt3__16vectorI8EmployeeNS_9allocatorIS1_EEE9__end_capB7v160006Ev, symObjAddr: 0x6670, symBinAddr: 0x100007AD0, symSize: 0x28 }
  - { offsetInCU: 0x13D4A, offset: 0x13D4A, size: 0x8, addend: 0x0, symName: __ZNKSt3__117__compressed_pairIP8EmployeeNS_9allocatorIS1_EEE5firstB7v160006Ev, symObjAddr: 0x6698, symBinAddr: 0x100007AF8, symSize: 0x24 }
  - { offsetInCU: 0x13D6F, offset: 0x13D6F, size: 0x8, addend: 0x0, symName: __ZNKSt3__122__compressed_pair_elemIP8EmployeeLi0ELb0EE5__getB7v160006Ev, symObjAddr: 0x66BC, symBinAddr: 0x100007B1C, symSize: 0x14 }
  - { offsetInCU: 0x13DAD, offset: 0x13DAD, size: 0x8, addend: 0x0, symName: __ZNKSt3__111__move_loopINS_17_ClassicAlgPolicyEEclB7v160006IP8EmployeeS5_S5_EENS_4pairIT_T1_EES7_T0_S8_, symObjAddr: 0x694C, symBinAddr: 0x100007DAC, symSize: 0x90 }
  - { offsetInCU: 0x13E1C, offset: 0x13E1C, size: 0x8, addend: 0x0, symName: __ZNSt3__18_IterOpsINS_17_ClassicAlgPolicyEE11__iter_moveB7v160006IRP8EmployeeEENS_9enable_ifIXsr12is_referenceIDTdeclsr3stdE7declvalIRT_EEEEE5valueEDTclsr3stdE4movedeclsr3stdE7declvalIS9_EEEEE4typeEOS8_, symObjAddr: 0x6AB4, symBinAddr: 0x100007F14, symSize: 0x28 }
  - { offsetInCU: 0x13E48, offset: 0x13E48, size: 0x8, addend: 0x0, symName: __ZN8EmployeeaSERKS_, symObjAddr: 0x6ADC, symBinAddr: 0x100007F3C, symSize: 0x8C }
  - { offsetInCU: 0x13E78, offset: 0x13E78, size: 0x8, addend: 0x0, symName: __ZNSt3__18_IterOpsINS_17_ClassicAlgPolicyEE25__validate_iter_referenceB7v160006IRP8EmployeeEEvv, symObjAddr: 0x6B68, symBinAddr: 0x100007FC8, symSize: 0x4 }
  - { offsetInCU: 0x13E96, offset: 0x13E96, size: 0x8, addend: 0x0, symName: __ZNSt3__118__unwrap_iter_implIP8EmployeeLb1EE8__unwrapB7v160006ES2_, symObjAddr: 0x6B6C, symBinAddr: 0x100007FCC, symSize: 0x24 }
  - { offsetInCU: 0x13EB9, offset: 0x13EB9, size: 0x8, addend: 0x0, symName: __ZNSt3__14pairIP8EmployeeS2_EC1B7v160006ERKS2_S5_, symObjAddr: 0x6B90, symBinAddr: 0x100007FF0, symSize: 0x3C }
  - { offsetInCU: 0x13EFD, offset: 0x13EFD, size: 0x8, addend: 0x0, symName: __ZNSt3__14pairIP8EmployeeS2_EC2B7v160006ERKS2_S5_, symObjAddr: 0x6BCC, symBinAddr: 0x10000802C, symSize: 0x34 }
  - { offsetInCU: 0x13F42, offset: 0x13F42, size: 0x8, addend: 0x0, symName: __ZNSt3__118__unwrap_iter_implIP8EmployeeLb1EE8__rewrapB7v160006ES2_S2_, symObjAddr: 0x6C00, symBinAddr: 0x100008060, symSize: 0x58 }
  - { offsetInCU: 0x13F73, offset: 0x13F73, size: 0x8, addend: 0x0, symName: __ZNSt3__111__wrap_iterIPK8EmployeeEC2B7v160006IPS1_EERKNS0_IT_EEPNS_9enable_ifIXsr14is_convertibleIS7_S3_EE5valueEvE4typeE, symObjAddr: 0x6C58, symBinAddr: 0x1000080B8, symSize: 0x40 }
  - { offsetInCU: 0x13FBD, offset: 0x13FBD, size: 0x8, addend: 0x0, symName: __ZNKSt3__111__wrap_iterIP8EmployeeE4baseB7v160006Ev, symObjAddr: 0x6C98, symBinAddr: 0x1000080F8, symSize: 0x18 }
  - { offsetInCU: 0x13FE2, offset: 0x13FE2, size: 0x8, addend: 0x0, symName: __ZNSt3__16vectorI10ProgrammerNS_9allocatorIS1_EEE11__make_iterB7v160006EPS1_, symObjAddr: 0x6CB0, symBinAddr: 0x100008110, symSize: 0x34 }
  - { offsetInCU: 0x14016, offset: 0x14016, size: 0x8, addend: 0x0, symName: __ZNSt3__111__wrap_iterIP10ProgrammerEC1B7v160006EPKvS2_, symObjAddr: 0x6CE4, symBinAddr: 0x100008144, symSize: 0x3C }
  - { offsetInCU: 0x1405A, offset: 0x1405A, size: 0x8, addend: 0x0, symName: __ZNSt3__111__wrap_iterIP10ProgrammerEC2B7v160006EPKvS2_, symObjAddr: 0x6D20, symBinAddr: 0x100008180, symSize: 0x24 }
  - { offsetInCU: 0x1409F, offset: 0x1409F, size: 0x8, addend: 0x0, symName: __ZNSt3__111__wrap_iterIP10ProgrammerEpLB7v160006El, symObjAddr: 0x6D44, symBinAddr: 0x1000081A4, symSize: 0x30 }
  - { offsetInCU: 0x140D2, offset: 0x140D2, size: 0x8, addend: 0x0, symName: __ZNKSt3__16vectorI10ProgrammerNS_9allocatorIS1_EEE6cbeginB7v160006Ev, symObjAddr: 0x6DBC, symBinAddr: 0x10000821C, symSize: 0x2C }
  - { offsetInCU: 0x140F7, offset: 0x140F7, size: 0x8, addend: 0x0, symName: __ZNSt3__16vectorI10ProgrammerNS_9allocatorIS1_EEE17__destruct_at_endB7v160006EPS1_, symObjAddr: 0x6DE8, symBinAddr: 0x100008248, symSize: 0x88 }
  - { offsetInCU: 0x1413A, offset: 0x1413A, size: 0x8, addend: 0x0, symName: __ZNSt3__16vectorI10ProgrammerNS_9allocatorIS1_EEE27__invalidate_iterators_pastB7v160006EPS1_, symObjAddr: 0x6EB0, symBinAddr: 0x100008310, symSize: 0x14 }
  - { offsetInCU: 0x14170, offset: 0x14170, size: 0x8, addend: 0x0, symName: __ZNKSt3__111__wrap_iterIPK10ProgrammerE4baseB7v160006Ev, symObjAddr: 0x6EC4, symBinAddr: 0x100008324, symSize: 0x18 }
  - { offsetInCU: 0x14194, offset: 0x14194, size: 0x8, addend: 0x0, symName: __ZNKSt3__16vectorI10ProgrammerNS_9allocatorIS1_EEE5beginB7v160006Ev, symObjAddr: 0x6EDC, symBinAddr: 0x10000833C, symSize: 0x30 }
  - { offsetInCU: 0x141BB, offset: 0x141BB, size: 0x8, addend: 0x0, symName: __ZNKSt3__16vectorI10ProgrammerNS_9allocatorIS1_EEE11__make_iterB7v160006EPKS1_, symObjAddr: 0x6F0C, symBinAddr: 0x10000836C, symSize: 0x34 }
  - { offsetInCU: 0x141EF, offset: 0x141EF, size: 0x8, addend: 0x0, symName: __ZNSt3__111__wrap_iterIPK10ProgrammerEC1B7v160006EPKvS3_, symObjAddr: 0x6F40, symBinAddr: 0x1000083A0, symSize: 0x3C }
  - { offsetInCU: 0x14233, offset: 0x14233, size: 0x8, addend: 0x0, symName: __ZNSt3__111__wrap_iterIPK10ProgrammerEC2B7v160006EPKvS3_, symObjAddr: 0x6F7C, symBinAddr: 0x1000083DC, symSize: 0x24 }
  - { offsetInCU: 0x14278, offset: 0x14278, size: 0x8, addend: 0x0, symName: __ZNSt3__16vectorI10ProgrammerNS_9allocatorIS1_EEE22__base_destruct_at_endB7v160006EPS1_, symObjAddr: 0x6FA0, symBinAddr: 0x100008400, symSize: 0xA0 }
  - { offsetInCU: 0x142BB, offset: 0x142BB, size: 0x8, addend: 0x0, symName: __ZNKSt3__16vectorI10ProgrammerNS_9allocatorIS1_EEE17__annotate_shrinkB7v160006Em, symObjAddr: 0x7040, symBinAddr: 0x1000084A0, symSize: 0xD0 }
  - { offsetInCU: 0x14308, offset: 0x14308, size: 0x8, addend: 0x0, symName: __ZNKSt3__111__move_loopINS_17_ClassicAlgPolicyEEclB7v160006IP10ProgrammerS5_S5_EENS_4pairIT_T1_EES7_T0_S8_, symObjAddr: 0x738C, symBinAddr: 0x1000087EC, symSize: 0x90 }
  - { offsetInCU: 0x14377, offset: 0x14377, size: 0x8, addend: 0x0, symName: __ZNSt3__18_IterOpsINS_17_ClassicAlgPolicyEE11__iter_moveB7v160006IRP10ProgrammerEENS_9enable_ifIXsr12is_referenceIDTdeclsr3stdE7declvalIRT_EEEEE5valueEDTclsr3stdE4movedeclsr3stdE7declvalIS9_EEEEE4typeEOS8_, symObjAddr: 0x74F4, symBinAddr: 0x100008954, symSize: 0x28 }
  - { offsetInCU: 0x143A3, offset: 0x143A3, size: 0x8, addend: 0x0, symName: __ZN10ProgrammeraSERKS_, symObjAddr: 0x751C, symBinAddr: 0x10000897C, symSize: 0x68 }
  - { offsetInCU: 0x143D3, offset: 0x143D3, size: 0x8, addend: 0x0, symName: __ZNSt3__18_IterOpsINS_17_ClassicAlgPolicyEE25__validate_iter_referenceB7v160006IRP10ProgrammerEEvv, symObjAddr: 0x7584, symBinAddr: 0x1000089E4, symSize: 0x4 }
  - { offsetInCU: 0x143F1, offset: 0x143F1, size: 0x8, addend: 0x0, symName: __ZNSt3__118__unwrap_iter_implIP10ProgrammerLb1EE8__unwrapB7v160006ES2_, symObjAddr: 0x7588, symBinAddr: 0x1000089E8, symSize: 0x24 }
  - { offsetInCU: 0x14414, offset: 0x14414, size: 0x8, addend: 0x0, symName: __ZNSt3__14pairIP10ProgrammerS2_EC1B7v160006ERKS2_S5_, symObjAddr: 0x75AC, symBinAddr: 0x100008A0C, symSize: 0x3C }
  - { offsetInCU: 0x14458, offset: 0x14458, size: 0x8, addend: 0x0, symName: __ZNSt3__14pairIP10ProgrammerS2_EC2B7v160006ERKS2_S5_, symObjAddr: 0x75E8, symBinAddr: 0x100008A48, symSize: 0x34 }
  - { offsetInCU: 0x1449D, offset: 0x1449D, size: 0x8, addend: 0x0, symName: __ZNSt3__118__unwrap_iter_implIP10ProgrammerLb1EE8__rewrapB7v160006ES2_S2_, symObjAddr: 0x761C, symBinAddr: 0x100008A7C, symSize: 0x58 }
  - { offsetInCU: 0x144CE, offset: 0x144CE, size: 0x8, addend: 0x0, symName: __ZNSt3__111__wrap_iterIPK10ProgrammerEC2B7v160006IPS1_EERKNS0_IT_EEPNS_9enable_ifIXsr14is_convertibleIS7_S3_EE5valueEvE4typeE, symObjAddr: 0x7674, symBinAddr: 0x100008AD4, symSize: 0x40 }
  - { offsetInCU: 0x14518, offset: 0x14518, size: 0x8, addend: 0x0, symName: __ZNKSt3__111__wrap_iterIP10ProgrammerE4baseB7v160006Ev, symObjAddr: 0x76B4, symBinAddr: 0x100008B14, symSize: 0x18 }
  - { offsetInCU: 0x1453D, offset: 0x1453D, size: 0x8, addend: 0x0, symName: __ZNSt3__16vectorI17SoftwareArchitectNS_9allocatorIS1_EEE11__make_iterB7v160006EPS1_, symObjAddr: 0x76CC, symBinAddr: 0x100008B2C, symSize: 0x34 }
  - { offsetInCU: 0x14571, offset: 0x14571, size: 0x8, addend: 0x0, symName: __ZNSt3__111__wrap_iterIP17SoftwareArchitectEC1B7v160006EPKvS2_, symObjAddr: 0x7700, symBinAddr: 0x100008B60, symSize: 0x3C }
  - { offsetInCU: 0x145B5, offset: 0x145B5, size: 0x8, addend: 0x0, symName: __ZNSt3__111__wrap_iterIP17SoftwareArchitectEC2B7v160006EPKvS2_, symObjAddr: 0x773C, symBinAddr: 0x100008B9C, symSize: 0x24 }
  - { offsetInCU: 0x145FA, offset: 0x145FA, size: 0x8, addend: 0x0, symName: __ZNSt3__111__wrap_iterIP17SoftwareArchitectEpLB7v160006El, symObjAddr: 0x7760, symBinAddr: 0x100008BC0, symSize: 0x30 }
  - { offsetInCU: 0x1462D, offset: 0x1462D, size: 0x8, addend: 0x0, symName: __ZNKSt3__16vectorI17SoftwareArchitectNS_9allocatorIS1_EEE6cbeginB7v160006Ev, symObjAddr: 0x77D8, symBinAddr: 0x100008C38, symSize: 0x2C }
  - { offsetInCU: 0x14652, offset: 0x14652, size: 0x8, addend: 0x0, symName: __ZNSt3__16vectorI17SoftwareArchitectNS_9allocatorIS1_EEE17__destruct_at_endB7v160006EPS1_, symObjAddr: 0x7804, symBinAddr: 0x100008C64, symSize: 0x88 }
  - { offsetInCU: 0x14695, offset: 0x14695, size: 0x8, addend: 0x0, symName: __ZNSt3__16vectorI17SoftwareArchitectNS_9allocatorIS1_EEE27__invalidate_iterators_pastB7v160006EPS1_, symObjAddr: 0x78CC, symBinAddr: 0x100008D2C, symSize: 0x14 }
  - { offsetInCU: 0x146CB, offset: 0x146CB, size: 0x8, addend: 0x0, symName: __ZNKSt3__111__wrap_iterIPK17SoftwareArchitectE4baseB7v160006Ev, symObjAddr: 0x78E0, symBinAddr: 0x100008D40, symSize: 0x18 }
  - { offsetInCU: 0x146EF, offset: 0x146EF, size: 0x8, addend: 0x0, symName: __ZNKSt3__16vectorI17SoftwareArchitectNS_9allocatorIS1_EEE5beginB7v160006Ev, symObjAddr: 0x78F8, symBinAddr: 0x100008D58, symSize: 0x30 }
  - { offsetInCU: 0x14716, offset: 0x14716, size: 0x8, addend: 0x0, symName: __ZNKSt3__16vectorI17SoftwareArchitectNS_9allocatorIS1_EEE11__make_iterB7v160006EPKS1_, symObjAddr: 0x7928, symBinAddr: 0x100008D88, symSize: 0x34 }
  - { offsetInCU: 0x1474A, offset: 0x1474A, size: 0x8, addend: 0x0, symName: __ZNSt3__111__wrap_iterIPK17SoftwareArchitectEC1B7v160006EPKvS3_, symObjAddr: 0x795C, symBinAddr: 0x100008DBC, symSize: 0x3C }
  - { offsetInCU: 0x1478E, offset: 0x1478E, size: 0x8, addend: 0x0, symName: __ZNSt3__111__wrap_iterIPK17SoftwareArchitectEC2B7v160006EPKvS3_, symObjAddr: 0x7998, symBinAddr: 0x100008DF8, symSize: 0x24 }
  - { offsetInCU: 0x147D3, offset: 0x147D3, size: 0x8, addend: 0x0, symName: __ZNSt3__16vectorI17SoftwareArchitectNS_9allocatorIS1_EEE22__base_destruct_at_endB7v160006EPS1_, symObjAddr: 0x79BC, symBinAddr: 0x100008E1C, symSize: 0xA0 }
  - { offsetInCU: 0x14816, offset: 0x14816, size: 0x8, addend: 0x0, symName: __ZNKSt3__16vectorI17SoftwareArchitectNS_9allocatorIS1_EEE17__annotate_shrinkB7v160006Em, symObjAddr: 0x7A5C, symBinAddr: 0x100008EBC, symSize: 0xD0 }
  - { offsetInCU: 0x1484A, offset: 0x1484A, size: 0x8, addend: 0x0, symName: __ZNSt3__116allocator_traitsINS_9allocatorI17SoftwareArchitectEEE7destroyB7v160006IS2_vEEvRS3_PT_, symObjAddr: 0x7B2C, symBinAddr: 0x100008F8C, symSize: 0x2C }
  - { offsetInCU: 0x14887, offset: 0x14887, size: 0x8, addend: 0x0, symName: __ZNSt3__16vectorI17SoftwareArchitectNS_9allocatorIS1_EEE7__allocB7v160006Ev, symObjAddr: 0x7B58, symBinAddr: 0x100008FB8, symSize: 0x28 }
  - { offsetInCU: 0x148AC, offset: 0x148AC, size: 0x8, addend: 0x0, symName: __ZNSt3__19allocatorI17SoftwareArchitectE7destroyB7v160006EPS1_, symObjAddr: 0x7B94, symBinAddr: 0x100008FF4, symSize: 0x28 }
  - { offsetInCU: 0x148DF, offset: 0x148DF, size: 0x8, addend: 0x0, symName: __ZN17SoftwareArchitectD1Ev, symObjAddr: 0x7BBC, symBinAddr: 0x10000901C, symSize: 0x2C }
  - { offsetInCU: 0x14909, offset: 0x14909, size: 0x8, addend: 0x0, symName: __ZN17SoftwareArchitectD2Ev, symObjAddr: 0x7BE8, symBinAddr: 0x100009048, symSize: 0x78 }
  - { offsetInCU: 0x14933, offset: 0x14933, size: 0x8, addend: 0x0, symName: __ZNSt3__117__compressed_pairIP17SoftwareArchitectNS_9allocatorIS1_EEE6secondB7v160006Ev, symObjAddr: 0x7C60, symBinAddr: 0x1000090C0, symSize: 0x24 }
  - { offsetInCU: 0x14958, offset: 0x14958, size: 0x8, addend: 0x0, symName: __ZNSt3__122__compressed_pair_elemINS_9allocatorI17SoftwareArchitectEELi1ELb1EE5__getB7v160006Ev, symObjAddr: 0x7C84, symBinAddr: 0x1000090E4, symSize: 0x14 }
  - { offsetInCU: 0x1497D, offset: 0x1497D, size: 0x8, addend: 0x0, symName: __ZNKSt3__16vectorI17SoftwareArchitectNS_9allocatorIS1_EEE31__annotate_contiguous_containerB7v160006EPKvS6_S6_S6_, symObjAddr: 0x7C98, symBinAddr: 0x1000090F8, symSize: 0x20 }
  - { offsetInCU: 0x149CE, offset: 0x149CE, size: 0x8, addend: 0x0, symName: __ZNKSt3__16vectorI17SoftwareArchitectNS_9allocatorIS1_EEE4dataB7v160006Ev, symObjAddr: 0x7CB8, symBinAddr: 0x100009118, symSize: 0x28 }
  - { offsetInCU: 0x149F3, offset: 0x149F3, size: 0x8, addend: 0x0, symName: __ZNKSt3__16vectorI17SoftwareArchitectNS_9allocatorIS1_EEE8capacityB7v160006Ev, symObjAddr: 0x7CE0, symBinAddr: 0x100009140, symSize: 0x40 }
  - { offsetInCU: 0x14A18, offset: 0x14A18, size: 0x8, addend: 0x0, symName: __ZNKSt3__16vectorI17SoftwareArchitectNS_9allocatorIS1_EEE9__end_capB7v160006Ev, symObjAddr: 0x7D20, symBinAddr: 0x100009180, symSize: 0x28 }
  - { offsetInCU: 0x14A3D, offset: 0x14A3D, size: 0x8, addend: 0x0, symName: __ZNKSt3__117__compressed_pairIP17SoftwareArchitectNS_9allocatorIS1_EEE5firstB7v160006Ev, symObjAddr: 0x7D48, symBinAddr: 0x1000091A8, symSize: 0x24 }
  - { offsetInCU: 0x14A62, offset: 0x14A62, size: 0x8, addend: 0x0, symName: __ZNKSt3__122__compressed_pair_elemIP17SoftwareArchitectLi0ELb0EE5__getB7v160006Ev, symObjAddr: 0x7D6C, symBinAddr: 0x1000091CC, symSize: 0x14 }
  - { offsetInCU: 0x14AA0, offset: 0x14AA0, size: 0x8, addend: 0x0, symName: __ZNKSt3__111__move_loopINS_17_ClassicAlgPolicyEEclB7v160006IP17SoftwareArchitectS5_S5_EENS_4pairIT_T1_EES7_T0_S8_, symObjAddr: 0x7FFC, symBinAddr: 0x10000945C, symSize: 0x90 }
  - { offsetInCU: 0x14B0F, offset: 0x14B0F, size: 0x8, addend: 0x0, symName: __ZNSt3__18_IterOpsINS_17_ClassicAlgPolicyEE11__iter_moveB7v160006IRP17SoftwareArchitectEENS_9enable_ifIXsr12is_referenceIDTdeclsr3stdE7declvalIRT_EEEEE5valueEDTclsr3stdE4movedeclsr3stdE7declvalIS9_EEEEE4typeEOS8_, symObjAddr: 0x8164, symBinAddr: 0x1000095C4, symSize: 0x28 }
  - { offsetInCU: 0x14B3B, offset: 0x14B3B, size: 0x8, addend: 0x0, symName: __ZN17SoftwareArchitectaSERKS_, symObjAddr: 0x818C, symBinAddr: 0x1000095EC, symSize: 0x54 }
  - { offsetInCU: 0x14B6B, offset: 0x14B6B, size: 0x8, addend: 0x0, symName: __ZNSt3__18_IterOpsINS_17_ClassicAlgPolicyEE25__validate_iter_referenceB7v160006IRP17SoftwareArchitectEEvv, symObjAddr: 0x81E0, symBinAddr: 0x100009640, symSize: 0x4 }
  - { offsetInCU: 0x14B89, offset: 0x14B89, size: 0x8, addend: 0x0, symName: __ZNSt3__118__unwrap_iter_implIP17SoftwareArchitectLb1EE8__unwrapB7v160006ES2_, symObjAddr: 0x81E4, symBinAddr: 0x100009644, symSize: 0x24 }
  - { offsetInCU: 0x14BAC, offset: 0x14BAC, size: 0x8, addend: 0x0, symName: __ZNSt3__14pairIP17SoftwareArchitectS2_EC1B7v160006ERKS2_S5_, symObjAddr: 0x8208, symBinAddr: 0x100009668, symSize: 0x3C }
  - { offsetInCU: 0x14BF0, offset: 0x14BF0, size: 0x8, addend: 0x0, symName: __ZNSt3__14pairIP17SoftwareArchitectS2_EC2B7v160006ERKS2_S5_, symObjAddr: 0x8244, symBinAddr: 0x1000096A4, symSize: 0x34 }
  - { offsetInCU: 0x14C35, offset: 0x14C35, size: 0x8, addend: 0x0, symName: __ZNSt3__118__unwrap_iter_implIP17SoftwareArchitectLb1EE8__rewrapB7v160006ES2_S2_, symObjAddr: 0x8278, symBinAddr: 0x1000096D8, symSize: 0x58 }
  - { offsetInCU: 0x14C66, offset: 0x14C66, size: 0x8, addend: 0x0, symName: __ZNSt3__111__wrap_iterIPK17SoftwareArchitectEC2B7v160006IPS1_EERKNS0_IT_EEPNS_9enable_ifIXsr14is_convertibleIS7_S3_EE5valueEvE4typeE, symObjAddr: 0x82D0, symBinAddr: 0x100009730, symSize: 0x40 }
  - { offsetInCU: 0x14CB0, offset: 0x14CB0, size: 0x8, addend: 0x0, symName: __ZNKSt3__111__wrap_iterIP17SoftwareArchitectE4baseB7v160006Ev, symObjAddr: 0x8310, symBinAddr: 0x100009770, symSize: 0x18 }
  - { offsetInCU: 0x14CD5, offset: 0x14CD5, size: 0x8, addend: 0x0, symName: __ZNSt3__16vectorIiNS_9allocatorIiEEEC2B7v160006Ev, symObjAddr: 0x8328, symBinAddr: 0x100009788, symSize: 0x4C }
  - { offsetInCU: 0x14CFD, offset: 0x14CFD, size: 0x8, addend: 0x0, symName: __ZNSt3__117__compressed_pairIPiNS_9allocatorIiEEEC1B7v160006IDnNS_18__default_init_tagEEEOT_OT0_, symObjAddr: 0x8374, symBinAddr: 0x1000097D4, symSize: 0x3C }
  - { offsetInCU: 0x14D53, offset: 0x14D53, size: 0x8, addend: 0x0, symName: __ZNSt3__117__compressed_pairIPiNS_9allocatorIiEEEC2B7v160006IDnNS_18__default_init_tagEEEOT_OT0_, symObjAddr: 0x83C0, symBinAddr: 0x100009820, symSize: 0x40 }
  - { offsetInCU: 0x14DA9, offset: 0x14DA9, size: 0x8, addend: 0x0, symName: __ZNSt3__122__compressed_pair_elemIPiLi0ELb0EEC2B7v160006IDnvEEOT_, symObjAddr: 0x8400, symBinAddr: 0x100009860, symSize: 0x1C }
  - { offsetInCU: 0x14DEA, offset: 0x14DEA, size: 0x8, addend: 0x0, symName: __ZNSt3__122__compressed_pair_elemINS_9allocatorIiEELi1ELb1EEC2B7v160006ENS_18__default_init_tagE, symObjAddr: 0x841C, symBinAddr: 0x10000987C, symSize: 0x2C }
  - { offsetInCU: 0x14E1D, offset: 0x14E1D, size: 0x8, addend: 0x0, symName: __ZNSt3__19allocatorIiEC2B7v160006Ev, symObjAddr: 0x8448, symBinAddr: 0x1000098A8, symSize: 0x2C }
  - { offsetInCU: 0x14E45, offset: 0x14E45, size: 0x8, addend: 0x0, symName: __ZNSt3__116__non_trivial_ifILb1ENS_9allocatorIiEEEC2B7v160006Ev, symObjAddr: 0x8474, symBinAddr: 0x1000098D4, symSize: 0x14 }
  - { offsetInCU: 0x14E6E, offset: 0x14E6E, size: 0x8, addend: 0x0, symName: __ZNSt3__16vectorIiNS_9allocatorIiEEE9__end_capB7v160006Ev, symObjAddr: 0x8488, symBinAddr: 0x1000098E8, symSize: 0x28 }
  - { offsetInCU: 0x14E98, offset: 0x14E98, size: 0x8, addend: 0x0, symName: __ZNSt3__16vectorIiNS_9allocatorIiEEE22__construct_one_at_endB7v160006IJiEEEvDpOT_, symObjAddr: 0x84B0, symBinAddr: 0x100009910, symSize: 0x98 }
  - { offsetInCU: 0x14EE5, offset: 0x14EE5, size: 0x8, addend: 0x0, symName: __ZNSt3__16vectorIiNS_9allocatorIiEEE21__push_back_slow_pathIiEEvOT_, symObjAddr: 0x8548, symBinAddr: 0x1000099A8, symSize: 0xE0 }
  - { offsetInCU: 0x14F42, offset: 0x14F42, size: 0x8, addend: 0x0, symName: __ZNSt3__117__compressed_pairIPiNS_9allocatorIiEEE5firstB7v160006Ev, symObjAddr: 0x8628, symBinAddr: 0x100009A88, symSize: 0x24 }
  - { offsetInCU: 0x14F67, offset: 0x14F67, size: 0x8, addend: 0x0, symName: __ZNSt3__122__compressed_pair_elemIPiLi0ELb0EE5__getB7v160006Ev, symObjAddr: 0x864C, symBinAddr: 0x100009AAC, symSize: 0x14 }
  - { offsetInCU: 0x14FA5, offset: 0x14FA5, size: 0x8, addend: 0x0, symName: __ZNSt3__16vectorIiNS_9allocatorIiEEE21_ConstructTransactionC1B7v160006ERS3_m, symObjAddr: 0x8660, symBinAddr: 0x100009AC0, symSize: 0x3C }
  - { offsetInCU: 0x14FEB, offset: 0x14FEB, size: 0x8, addend: 0x0, symName: __ZNSt3__116allocator_traitsINS_9allocatorIiEEE9constructB7v160006IiJiEvEEvRS2_PT_DpOT0_, symObjAddr: 0x869C, symBinAddr: 0x100009AFC, symSize: 0x34 }
  - { offsetInCU: 0x15042, offset: 0x15042, size: 0x8, addend: 0x0, symName: __ZNSt3__16vectorIiNS_9allocatorIiEEE7__allocB7v160006Ev, symObjAddr: 0x86D0, symBinAddr: 0x100009B30, symSize: 0x28 }
  - { offsetInCU: 0x15067, offset: 0x15067, size: 0x8, addend: 0x0, symName: __ZNSt3__16vectorIiNS_9allocatorIiEEE21_ConstructTransactionD1B7v160006Ev, symObjAddr: 0x870C, symBinAddr: 0x100009B6C, symSize: 0x2C }
  - { offsetInCU: 0x1508F, offset: 0x1508F, size: 0x8, addend: 0x0, symName: __ZNSt3__16vectorIiNS_9allocatorIiEEE21_ConstructTransactionC2B7v160006ERS3_m, symObjAddr: 0x8738, symBinAddr: 0x100009B98, symSize: 0x44 }
  - { offsetInCU: 0x150D6, offset: 0x150D6, size: 0x8, addend: 0x0, symName: __ZNSt3__19allocatorIiE9constructB7v160006IiJiEEEvPT_DpOT0_, symObjAddr: 0x877C, symBinAddr: 0x100009BDC, symSize: 0x28 }
  - { offsetInCU: 0x1512B, offset: 0x1512B, size: 0x8, addend: 0x0, symName: __ZNSt3__117__compressed_pairIPiNS_9allocatorIiEEE6secondB7v160006Ev, symObjAddr: 0x87A4, symBinAddr: 0x100009C04, symSize: 0x24 }
  - { offsetInCU: 0x15150, offset: 0x15150, size: 0x8, addend: 0x0, symName: __ZNSt3__122__compressed_pair_elemINS_9allocatorIiEELi1ELb1EE5__getB7v160006Ev, symObjAddr: 0x87C8, symBinAddr: 0x100009C28, symSize: 0x14 }
  - { offsetInCU: 0x15175, offset: 0x15175, size: 0x8, addend: 0x0, symName: __ZNSt3__16vectorIiNS_9allocatorIiEEE21_ConstructTransactionD2B7v160006Ev, symObjAddr: 0x87DC, symBinAddr: 0x100009C3C, symSize: 0x20 }
  - { offsetInCU: 0x1519D, offset: 0x1519D, size: 0x8, addend: 0x0, symName: __ZNKSt3__16vectorIiNS_9allocatorIiEEE11__recommendB7v160006Em, symObjAddr: 0x87FC, symBinAddr: 0x100009C5C, symSize: 0xB4 }
  - { offsetInCU: 0x151F1, offset: 0x151F1, size: 0x8, addend: 0x0, symName: __ZNSt3__114__split_bufferIiRNS_9allocatorIiEEEC1EmmS3_, symObjAddr: 0x88B0, symBinAddr: 0x100009D10, symSize: 0x44 }
  - { offsetInCU: 0x15246, offset: 0x15246, size: 0x8, addend: 0x0, symName: __ZNSt3__114__split_bufferIiRNS_9allocatorIiEEED1Ev, symObjAddr: 0x8A0C, symBinAddr: 0x100009E6C, symSize: 0x2C }
  - { offsetInCU: 0x15270, offset: 0x15270, size: 0x8, addend: 0x0, symName: __ZNKSt3__16vectorIiNS_9allocatorIiEEE8max_sizeEv, symObjAddr: 0x8A38, symBinAddr: 0x100009E98, symSize: 0x74 }
  - { offsetInCU: 0x15297, offset: 0x15297, size: 0x8, addend: 0x0, symName: __ZNKSt3__16vectorIiNS_9allocatorIiEEE20__throw_length_errorB7v160006Ev, symObjAddr: 0x8AAC, symBinAddr: 0x100009F0C, symSize: 0x1C }
  - { offsetInCU: 0x152BC, offset: 0x152BC, size: 0x8, addend: 0x0, symName: __ZNKSt3__16vectorIiNS_9allocatorIiEEE8capacityB7v160006Ev, symObjAddr: 0x8AC8, symBinAddr: 0x100009F28, symSize: 0x40 }
  - { offsetInCU: 0x152EB, offset: 0x152EB, size: 0x8, addend: 0x0, symName: __ZNSt3__116allocator_traitsINS_9allocatorIiEEE8max_sizeB7v160006IS2_vEEmRKS2_, symObjAddr: 0x8B08, symBinAddr: 0x100009F68, symSize: 0x24 }
  - { offsetInCU: 0x15319, offset: 0x15319, size: 0x8, addend: 0x0, symName: __ZNKSt3__16vectorIiNS_9allocatorIiEEE7__allocB7v160006Ev, symObjAddr: 0x8B2C, symBinAddr: 0x100009F8C, symSize: 0x28 }
  - { offsetInCU: 0x1533E, offset: 0x1533E, size: 0x8, addend: 0x0, symName: __ZNKSt3__19allocatorIiE8max_sizeB7v160006Ev, symObjAddr: 0x8B54, symBinAddr: 0x100009FB4, symSize: 0x14 }
  - { offsetInCU: 0x15363, offset: 0x15363, size: 0x8, addend: 0x0, symName: __ZNKSt3__117__compressed_pairIPiNS_9allocatorIiEEE6secondB7v160006Ev, symObjAddr: 0x8B68, symBinAddr: 0x100009FC8, symSize: 0x24 }
  - { offsetInCU: 0x15388, offset: 0x15388, size: 0x8, addend: 0x0, symName: __ZNKSt3__122__compressed_pair_elemINS_9allocatorIiEELi1ELb1EE5__getB7v160006Ev, symObjAddr: 0x8B8C, symBinAddr: 0x100009FEC, symSize: 0x14 }
  - { offsetInCU: 0x153AD, offset: 0x153AD, size: 0x8, addend: 0x0, symName: __ZNKSt3__16vectorIiNS_9allocatorIiEEE9__end_capB7v160006Ev, symObjAddr: 0x8BA0, symBinAddr: 0x10000A000, symSize: 0x28 }
  - { offsetInCU: 0x153D2, offset: 0x153D2, size: 0x8, addend: 0x0, symName: __ZNKSt3__117__compressed_pairIPiNS_9allocatorIiEEE5firstB7v160006Ev, symObjAddr: 0x8BC8, symBinAddr: 0x10000A028, symSize: 0x24 }
  - { offsetInCU: 0x153F7, offset: 0x153F7, size: 0x8, addend: 0x0, symName: __ZNKSt3__122__compressed_pair_elemIPiLi0ELb0EE5__getB7v160006Ev, symObjAddr: 0x8BEC, symBinAddr: 0x10000A04C, symSize: 0x14 }
  - { offsetInCU: 0x1541C, offset: 0x1541C, size: 0x8, addend: 0x0, symName: __ZNSt3__114__split_bufferIiRNS_9allocatorIiEEEC2EmmS3_, symObjAddr: 0x8C00, symBinAddr: 0x10000A060, symSize: 0xD4 }
  - { offsetInCU: 0x1548F, offset: 0x1548F, size: 0x8, addend: 0x0, symName: __ZNSt3__117__compressed_pairIPiRNS_9allocatorIiEEEC1B7v160006IDnS4_EEOT_OT0_, symObjAddr: 0x8CD4, symBinAddr: 0x10000A134, symSize: 0x3C }
  - { offsetInCU: 0x154E5, offset: 0x154E5, size: 0x8, addend: 0x0, symName: __ZNSt3__114__split_bufferIiRNS_9allocatorIiEEE7__allocB7v160006Ev, symObjAddr: 0x8D50, symBinAddr: 0x10000A1B0, symSize: 0x28 }
  - { offsetInCU: 0x1550A, offset: 0x1550A, size: 0x8, addend: 0x0, symName: __ZNSt3__114__split_bufferIiRNS_9allocatorIiEEE9__end_capB7v160006Ev, symObjAddr: 0x8D78, symBinAddr: 0x10000A1D8, symSize: 0x28 }
  - { offsetInCU: 0x1552F, offset: 0x1552F, size: 0x8, addend: 0x0, symName: __ZNSt3__117__compressed_pairIPiRNS_9allocatorIiEEEC2B7v160006IDnS4_EEOT_OT0_, symObjAddr: 0x8DA0, symBinAddr: 0x10000A200, symSize: 0x48 }
  - { offsetInCU: 0x15585, offset: 0x15585, size: 0x8, addend: 0x0, symName: __ZNSt3__122__compressed_pair_elemIRNS_9allocatorIiEELi1ELb0EEC2B7v160006IS3_vEEOT_, symObjAddr: 0x8DE8, symBinAddr: 0x10000A248, symSize: 0x20 }
  - { offsetInCU: 0x155C6, offset: 0x155C6, size: 0x8, addend: 0x0, symName: __ZNSt3__19allocatorIiE8allocateB7v160006Em, symObjAddr: 0x8E08, symBinAddr: 0x10000A268, symSize: 0x84 }
  - { offsetInCU: 0x155F9, offset: 0x155F9, size: 0x8, addend: 0x0, symName: __ZNSt3__117__compressed_pairIPiRNS_9allocatorIiEEE6secondB7v160006Ev, symObjAddr: 0x8E8C, symBinAddr: 0x10000A2EC, symSize: 0x28 }
  - { offsetInCU: 0x1561E, offset: 0x1561E, size: 0x8, addend: 0x0, symName: __ZNSt3__122__compressed_pair_elemIRNS_9allocatorIiEELi1ELb0EE5__getB7v160006Ev, symObjAddr: 0x8EB4, symBinAddr: 0x10000A314, symSize: 0x18 }
  - { offsetInCU: 0x15643, offset: 0x15643, size: 0x8, addend: 0x0, symName: __ZNSt3__117__compressed_pairIPiRNS_9allocatorIiEEE5firstB7v160006Ev, symObjAddr: 0x8ECC, symBinAddr: 0x10000A32C, symSize: 0x24 }
  - { offsetInCU: 0x15668, offset: 0x15668, size: 0x8, addend: 0x0, symName: __ZNKSt3__16vectorIiNS_9allocatorIiEEE17__annotate_deleteB7v160006Ev, symObjAddr: 0x8EF0, symBinAddr: 0x10000A350, symSize: 0xB8 }
  - { offsetInCU: 0x1568D, offset: 0x1568D, size: 0x8, addend: 0x0, symName: __ZNSt3__116reverse_iteratorIPiEC1B7v160006ES1_, symObjAddr: 0x9090, symBinAddr: 0x10000A4F0, symSize: 0x34 }
  - { offsetInCU: 0x156C3, offset: 0x156C3, size: 0x8, addend: 0x0, symName: __ZNKSt3__116reverse_iteratorIPiE4baseB7v160006Ev, symObjAddr: 0x90C4, symBinAddr: 0x10000A524, symSize: 0x18 }
  - { offsetInCU: 0x156E8, offset: 0x156E8, size: 0x8, addend: 0x0, symName: __ZNKSt3__16vectorIiNS_9allocatorIiEEE14__annotate_newB7v160006Em, symObjAddr: 0x9118, symBinAddr: 0x10000A578, symSize: 0xAC }
  - { offsetInCU: 0x1571C, offset: 0x1571C, size: 0x8, addend: 0x0, symName: __ZNKSt3__16vectorIiNS_9allocatorIiEEE31__annotate_contiguous_containerB7v160006EPKvS5_S5_S5_, symObjAddr: 0x91D4, symBinAddr: 0x10000A634, symSize: 0x20 }
  - { offsetInCU: 0x1576D, offset: 0x1576D, size: 0x8, addend: 0x0, symName: __ZNKSt3__16vectorIiNS_9allocatorIiEEE4dataB7v160006Ev, symObjAddr: 0x91F4, symBinAddr: 0x10000A654, symSize: 0x28 }
  - { offsetInCU: 0x15792, offset: 0x15792, size: 0x8, addend: 0x0, symName: __ZNKSt3__116reverse_iteratorIPiEdeB7v160006Ev, symObjAddr: 0x92B4, symBinAddr: 0x10000A714, symSize: 0x28 }
  - { offsetInCU: 0x157C5, offset: 0x157C5, size: 0x8, addend: 0x0, symName: __ZNSt3__116reverse_iteratorIPiEppB7v160006Ev, symObjAddr: 0x92DC, symBinAddr: 0x10000A73C, symSize: 0x20 }
  - { offsetInCU: 0x157EF, offset: 0x157EF, size: 0x8, addend: 0x0, symName: __ZNSt3__119__to_address_helperINS_16reverse_iteratorIPiEEvE6__callB7v160006ERKS3_, symObjAddr: 0x9374, symBinAddr: 0x10000A7D4, symSize: 0x4C }
  - { offsetInCU: 0x15812, offset: 0x15812, size: 0x8, addend: 0x0, symName: __ZNKSt3__116reverse_iteratorIPiEptB7v160006Ev, symObjAddr: 0x93C0, symBinAddr: 0x10000A820, symSize: 0x24 }
  - { offsetInCU: 0x15850, offset: 0x15850, size: 0x8, addend: 0x0, symName: __ZNKSt3__111__move_loopINS_17_ClassicAlgPolicyEEclB7v160006INS_16reverse_iteratorIPiEES6_S6_EENS_4pairIT_T1_EES8_T0_S9_, symObjAddr: 0x9674, symBinAddr: 0x10000AAD4, symSize: 0xA0 }
  - { offsetInCU: 0x158BA, offset: 0x158BA, size: 0x8, addend: 0x0, symName: __ZNSt3__18_IterOpsINS_17_ClassicAlgPolicyEE11__iter_moveB7v160006IRNS_16reverse_iteratorIPiEEEENS_9enable_ifIXsr12is_referenceIDTdeclsr3stdE7declvalIRT_EEEEE5valueEDTclsr3stdE4movedeclsr3stdE7declvalISA_EEEEE4typeEOS9_, symObjAddr: 0x9874, symBinAddr: 0x10000ACD4, symSize: 0x28 }
  - { offsetInCU: 0x158E6, offset: 0x158E6, size: 0x8, addend: 0x0, symName: __ZNSt3__18_IterOpsINS_17_ClassicAlgPolicyEE25__validate_iter_referenceB7v160006IRNS_16reverse_iteratorIPiEEEEvv, symObjAddr: 0x989C, symBinAddr: 0x10000ACFC, symSize: 0x4 }
  - { offsetInCU: 0x15904, offset: 0x15904, size: 0x8, addend: 0x0, symName: __ZNSt3__118__unwrap_iter_implINS_16reverse_iteratorIPiEELb0EE8__unwrapB7v160006ES3_, symObjAddr: 0x98A0, symBinAddr: 0x10000AD00, symSize: 0x24 }
  - { offsetInCU: 0x15927, offset: 0x15927, size: 0x8, addend: 0x0, symName: __ZNSt3__14pairINS_16reverse_iteratorIPiEES3_EC1B7v160006ERKS3_S6_, symObjAddr: 0x98C4, symBinAddr: 0x10000AD24, symSize: 0x3C }
  - { offsetInCU: 0x1596B, offset: 0x1596B, size: 0x8, addend: 0x0, symName: __ZNSt3__14pairINS_16reverse_iteratorIPiEES3_EC2B7v160006ERKS3_S6_, symObjAddr: 0x9900, symBinAddr: 0x10000AD60, symSize: 0x34 }
  - { offsetInCU: 0x159B0, offset: 0x159B0, size: 0x8, addend: 0x0, symName: __ZNSt3__118__unwrap_iter_implINS_16reverse_iteratorIPiEELb0EE8__rewrapB7v160006ES3_S3_, symObjAddr: 0x9934, symBinAddr: 0x10000AD94, symSize: 0x2C }
  - { offsetInCU: 0x159DE, offset: 0x159DE, size: 0x8, addend: 0x0, symName: __ZNSt3__116reverse_iteratorIPiEC2B7v160006ES1_, symObjAddr: 0x9960, symBinAddr: 0x10000ADC0, symSize: 0x28 }
  - { offsetInCU: 0x15A15, offset: 0x15A15, size: 0x8, addend: 0x0, symName: __ZNSt3__114__split_bufferIiRNS_9allocatorIiEEED2Ev, symObjAddr: 0x9988, symBinAddr: 0x10000ADE8, symSize: 0x80 }
  - { offsetInCU: 0x15A40, offset: 0x15A40, size: 0x8, addend: 0x0, symName: __ZNSt3__114__split_bufferIiRNS_9allocatorIiEEE5clearB7v160006Ev, symObjAddr: 0x9A08, symBinAddr: 0x10000AE68, symSize: 0x28 }
  - { offsetInCU: 0x15A65, offset: 0x15A65, size: 0x8, addend: 0x0, symName: __ZNSt3__116allocator_traitsINS_9allocatorIiEEE10deallocateB7v160006ERS2_Pim, symObjAddr: 0x9A30, symBinAddr: 0x10000AE90, symSize: 0x34 }
  - { offsetInCU: 0x15AA7, offset: 0x15AA7, size: 0x8, addend: 0x0, symName: __ZNKSt3__114__split_bufferIiRNS_9allocatorIiEEE8capacityB7v160006Ev, symObjAddr: 0x9A64, symBinAddr: 0x10000AEC4, symSize: 0x40 }
  - { offsetInCU: 0x15ACC, offset: 0x15ACC, size: 0x8, addend: 0x0, symName: __ZNSt3__114__split_bufferIiRNS_9allocatorIiEEE17__destruct_at_endB7v160006EPi, symObjAddr: 0x9AA4, symBinAddr: 0x10000AF04, symSize: 0x2C }
  - { offsetInCU: 0x15AFE, offset: 0x15AFE, size: 0x8, addend: 0x0, symName: __ZNSt3__114__split_bufferIiRNS_9allocatorIiEEE17__destruct_at_endB7v160006EPiNS_17integral_constantIbLb0EEE, symObjAddr: 0x9AD0, symBinAddr: 0x10000AF30, symSize: 0x94 }
  - { offsetInCU: 0x15B3E, offset: 0x15B3E, size: 0x8, addend: 0x0, symName: __ZNSt3__116allocator_traitsINS_9allocatorIiEEE7destroyB7v160006IivEEvRS2_PT_, symObjAddr: 0x9B64, symBinAddr: 0x10000AFC4, symSize: 0x2C }
  - { offsetInCU: 0x15B7B, offset: 0x15B7B, size: 0x8, addend: 0x0, symName: __ZNSt3__19allocatorIiE7destroyB7v160006EPi, symObjAddr: 0x9B90, symBinAddr: 0x10000AFF0, symSize: 0x14 }
  - { offsetInCU: 0x15BAE, offset: 0x15BAE, size: 0x8, addend: 0x0, symName: __ZNSt3__19allocatorIiE10deallocateB7v160006EPim, symObjAddr: 0x9BA4, symBinAddr: 0x10000B004, symSize: 0x70 }
  - { offsetInCU: 0x15BEF, offset: 0x15BEF, size: 0x8, addend: 0x0, symName: __ZNKSt3__114__split_bufferIiRNS_9allocatorIiEEE9__end_capB7v160006Ev, symObjAddr: 0x9C14, symBinAddr: 0x10000B074, symSize: 0x28 }
  - { offsetInCU: 0x15C14, offset: 0x15C14, size: 0x8, addend: 0x0, symName: __ZNKSt3__117__compressed_pairIPiRNS_9allocatorIiEEE5firstB7v160006Ev, symObjAddr: 0x9C3C, symBinAddr: 0x10000B09C, symSize: 0x24 }
  - { offsetInCU: 0x15C39, offset: 0x15C39, size: 0x8, addend: 0x0, symName: __ZNKSt3__16vectorIiNS_9allocatorIiEEE20__throw_out_of_rangeB7v160006Ev, symObjAddr: 0x9C60, symBinAddr: 0x10000B0C0, symSize: 0x1C }
  - { offsetInCU: 0x15C5E, offset: 0x15C5E, size: 0x8, addend: 0x0, symName: __ZNSt3__16vectorI8EmployeeNS_9allocatorIS1_EEED2B7v160006Ev, symObjAddr: 0x9C7C, symBinAddr: 0x10000B0DC, symSize: 0x3C }
  - { offsetInCU: 0x15C86, offset: 0x15C86, size: 0x8, addend: 0x0, symName: __ZNSt3__16vectorI8EmployeeNS_9allocatorIS1_EEE16__destroy_vectorC1ERS4_, symObjAddr: 0x9CB8, symBinAddr: 0x10000B118, symSize: 0x34 }
  - { offsetInCU: 0x15CBD, offset: 0x15CBD, size: 0x8, addend: 0x0, symName: __ZNSt3__16vectorI8EmployeeNS_9allocatorIS1_EEE16__destroy_vectorclB7v160006Ev, symObjAddr: 0x9CEC, symBinAddr: 0x10000B14C, symSize: 0x9C }
  - { offsetInCU: 0x15CE2, offset: 0x15CE2, size: 0x8, addend: 0x0, symName: __ZNSt3__16vectorI8EmployeeNS_9allocatorIS1_EEE16__destroy_vectorC2ERS4_, symObjAddr: 0x9D88, symBinAddr: 0x10000B1E8, symSize: 0x20 }
  - { offsetInCU: 0x15D1A, offset: 0x15D1A, size: 0x8, addend: 0x0, symName: __ZNKSt3__16vectorI8EmployeeNS_9allocatorIS1_EEE17__annotate_deleteB7v160006Ev, symObjAddr: 0x9DA8, symBinAddr: 0x10000B208, symSize: 0xD4 }
  - { offsetInCU: 0x15D3F, offset: 0x15D3F, size: 0x8, addend: 0x0, symName: __ZNSt3__16vectorI8EmployeeNS_9allocatorIS1_EEE7__clearB7v160006Ev, symObjAddr: 0x9E8C, symBinAddr: 0x10000B2EC, symSize: 0x28 }
  - { offsetInCU: 0x15D64, offset: 0x15D64, size: 0x8, addend: 0x0, symName: __ZNSt3__116allocator_traitsINS_9allocatorI8EmployeeEEE10deallocateB7v160006ERS3_PS2_m, symObjAddr: 0x9EB4, symBinAddr: 0x10000B314, symSize: 0x34 }
  - { offsetInCU: 0x15DA6, offset: 0x15DA6, size: 0x8, addend: 0x0, symName: __ZNSt3__19allocatorI8EmployeeE10deallocateB7v160006EPS1_m, symObjAddr: 0x9EE8, symBinAddr: 0x10000B348, symSize: 0x74 }
  - { offsetInCU: 0x15DE7, offset: 0x15DE7, size: 0x8, addend: 0x0, symName: __ZNSt3__16vectorI10ProgrammerNS_9allocatorIS1_EEED2B7v160006Ev, symObjAddr: 0x9F5C, symBinAddr: 0x10000B3BC, symSize: 0x3C }
  - { offsetInCU: 0x15E0F, offset: 0x15E0F, size: 0x8, addend: 0x0, symName: __ZNSt3__16vectorI10ProgrammerNS_9allocatorIS1_EEE16__destroy_vectorC1ERS4_, symObjAddr: 0x9F98, symBinAddr: 0x10000B3F8, symSize: 0x34 }
  - { offsetInCU: 0x15E46, offset: 0x15E46, size: 0x8, addend: 0x0, symName: __ZNSt3__16vectorI10ProgrammerNS_9allocatorIS1_EEE16__destroy_vectorclB7v160006Ev, symObjAddr: 0x9FCC, symBinAddr: 0x10000B42C, symSize: 0x9C }
  - { offsetInCU: 0x15E6B, offset: 0x15E6B, size: 0x8, addend: 0x0, symName: __ZNSt3__16vectorI10ProgrammerNS_9allocatorIS1_EEE16__destroy_vectorC2ERS4_, symObjAddr: 0xA068, symBinAddr: 0x10000B4C8, symSize: 0x20 }
  - { offsetInCU: 0x15EA3, offset: 0x15EA3, size: 0x8, addend: 0x0, symName: __ZNSt3__16vectorI10ProgrammerNS_9allocatorIS1_EEE7__clearB7v160006Ev, symObjAddr: 0xA098, symBinAddr: 0x10000B4F8, symSize: 0x28 }
  - { offsetInCU: 0x15EC8, offset: 0x15EC8, size: 0x8, addend: 0x0, symName: __ZNSt3__16vectorI17SoftwareArchitectNS_9allocatorIS1_EEED2B7v160006Ev, symObjAddr: 0xA0C0, symBinAddr: 0x10000B520, symSize: 0x3C }
  - { offsetInCU: 0x15EF0, offset: 0x15EF0, size: 0x8, addend: 0x0, symName: __ZNSt3__16vectorI17SoftwareArchitectNS_9allocatorIS1_EEE16__destroy_vectorC1ERS4_, symObjAddr: 0xA0FC, symBinAddr: 0x10000B55C, symSize: 0x34 }
  - { offsetInCU: 0x15F27, offset: 0x15F27, size: 0x8, addend: 0x0, symName: __ZNSt3__16vectorI17SoftwareArchitectNS_9allocatorIS1_EEE16__destroy_vectorclB7v160006Ev, symObjAddr: 0xA130, symBinAddr: 0x10000B590, symSize: 0x9C }
  - { offsetInCU: 0x15F4C, offset: 0x15F4C, size: 0x8, addend: 0x0, symName: __ZNSt3__16vectorI17SoftwareArchitectNS_9allocatorIS1_EEE16__destroy_vectorC2ERS4_, symObjAddr: 0xA1CC, symBinAddr: 0x10000B62C, symSize: 0x20 }
  - { offsetInCU: 0x15F84, offset: 0x15F84, size: 0x8, addend: 0x0, symName: __ZNKSt3__16vectorI17SoftwareArchitectNS_9allocatorIS1_EEE17__annotate_deleteB7v160006Ev, symObjAddr: 0xA1EC, symBinAddr: 0x10000B64C, symSize: 0xD4 }
  - { offsetInCU: 0x15FA9, offset: 0x15FA9, size: 0x8, addend: 0x0, symName: __ZNSt3__16vectorI17SoftwareArchitectNS_9allocatorIS1_EEE7__clearB7v160006Ev, symObjAddr: 0xA2D0, symBinAddr: 0x10000B730, symSize: 0x28 }
  - { offsetInCU: 0x15FCE, offset: 0x15FCE, size: 0x8, addend: 0x0, symName: __ZNSt3__116allocator_traitsINS_9allocatorI17SoftwareArchitectEEE10deallocateB7v160006ERS3_PS2_m, symObjAddr: 0xA2F8, symBinAddr: 0x10000B758, symSize: 0x34 }
  - { offsetInCU: 0x16010, offset: 0x16010, size: 0x8, addend: 0x0, symName: __ZNSt3__19allocatorI17SoftwareArchitectE10deallocateB7v160006EPS1_m, symObjAddr: 0xA32C, symBinAddr: 0x10000B78C, symSize: 0x74 }
  - { offsetInCU: 0x295E, offset: 0x18B8E, size: 0x8, addend: 0x0, symName: __ZNSt3__124__put_character_sequenceB7v160006IcNS_11char_traitsIcEEEERNS_13basic_ostreamIT_T0_EES7_PKS4_m, symObjAddr: 0xFAC, symBinAddr: 0x10000C198, symSize: 0x1F4 }
  - { offsetInCU: 0x42AD, offset: 0x1A4DD, size: 0x8, addend: 0x0, symName: __ZNSt3__1lsB7v160006INS_11char_traitsIcEEEERNS_13basic_ostreamIcT_EES6_PKc, symObjAddr: 0x6C8, symBinAddr: 0x10000BE64, symSize: 0x48 }
  - { offsetInCU: 0x42F3, offset: 0x1A523, size: 0x8, addend: 0x0, symName: __ZNSt3__1lsB7v160006IcNS_11char_traitsIcEEEERNS_13basic_ostreamIT_T0_EES7_RKNS_8__iom_t6E, symObjAddr: 0x710, symBinAddr: 0x10000BEAC, symSize: 0x40 }
  - { offsetInCU: 0x4342, offset: 0x1A572, size: 0x8, addend: 0x0, symName: __ZNSt3__1lsB7v160006IcNS_11char_traitsIcEEEERNS_13basic_ostreamIT_T0_EES7_RKNS_8__iom_t5E, symObjAddr: 0x750, symBinAddr: 0x10000BEEC, symSize: 0x40 }
  - { offsetInCU: 0x438E, offset: 0x1A5BE, size: 0x8, addend: 0x0, symName: __ZNSt3__1lsB7v160006IcNS_11char_traitsIcEENS_9allocatorIcEEEERNS_13basic_ostreamIT_T0_EES9_RKNS_12basic_stringIS6_S7_T1_EE, symObjAddr: 0x790, symBinAddr: 0x10000BF2C, symSize: 0x4C }
  - { offsetInCU: 0x43E6, offset: 0x1A616, size: 0x8, addend: 0x0, symName: __ZNSt3__14setwB7v160006Ei, symObjAddr: 0x7DC, symBinAddr: 0x10000BF78, symSize: 0x2C }
  - { offsetInCU: 0x4414, offset: 0x1A644, size: 0x8, addend: 0x0, symName: __ZNSt3__112setprecisionB7v160006Ei, symObjAddr: 0x808, symBinAddr: 0x10000BFA4, symSize: 0x2C }
  - { offsetInCU: 0x4440, offset: 0x1A670, size: 0x8, addend: 0x0, symName: __ZNSt3__15fixedB7v160006ERNS_8ios_baseE, symObjAddr: 0x874, symBinAddr: 0x10000C010, symSize: 0x30 }
  - { offsetInCU: 0x446E, offset: 0x1A69E, size: 0x8, addend: 0x0, symName: __ZNSt3__116__pad_and_outputB7v160006IcNS_11char_traitsIcEEEENS_19ostreambuf_iteratorIT_T0_EES6_PKS4_S8_S8_RNS_8ios_baseES4_, symObjAddr: 0x1238, symBinAddr: 0x10000C3A8, symSize: 0x248 }
  - { offsetInCU: 0x453E, offset: 0x1A76E, size: 0x8, addend: 0x0, symName: __ZNSt3__19use_facetB7v160006INS_5ctypeIcEEEERKT_RKNS_6localeE, symObjAddr: 0x17C4, symBinAddr: 0x10000C934, symSize: 0x2C }
  - { offsetInCU: 0x4A18, offset: 0x1AC48, size: 0x8, addend: 0x0, symName: __ZNSt3__118__constexpr_strlenB7v160006EPKc, symObjAddr: 0x1AA4, symBinAddr: 0x10000CA40, symSize: 0x24 }
  - { offsetInCU: 0x6BA1, offset: 0x1CDD1, size: 0x8, addend: 0x0, symName: __ZN8EmployeeC2Ev, symObjAddr: 0x0, symBinAddr: 0x10000B800, symSize: 0x11C }
  - { offsetInCU: 0x6BCB, offset: 0x1CDFB, size: 0x8, addend: 0x0, symName: __ZN8EmployeeC1Ev, symObjAddr: 0x180, symBinAddr: 0x10000B91C, symSize: 0x2C }
  - { offsetInCU: 0x6BF5, offset: 0x1CE25, size: 0x8, addend: 0x0, symName: __ZN8EmployeeC2ENSt3__112basic_stringIcNS0_11char_traitsIcEENS0_9allocatorIcEEEEiS6_di, symObjAddr: 0x1AC, symBinAddr: 0x10000B948, symSize: 0x1BC }
  - { offsetInCU: 0x6C67, offset: 0x1CE97, size: 0x8, addend: 0x0, symName: __ZN8EmployeeC1ENSt3__112basic_stringIcNS0_11char_traitsIcEENS0_9allocatorIcEEEEiS6_di, symObjAddr: 0x368, symBinAddr: 0x10000BB04, symSize: 0x54 }
  - { offsetInCU: 0x6CD9, offset: 0x1CF09, size: 0x8, addend: 0x0, symName: __ZNK8Employee7getNameEv, symObjAddr: 0x3BC, symBinAddr: 0x10000BB58, symSize: 0x3C }
  - { offsetInCU: 0x6D00, offset: 0x1CF30, size: 0x8, addend: 0x0, symName: __ZNK8Employee5getIDEv, symObjAddr: 0x3F8, symBinAddr: 0x10000BB94, symSize: 0x18 }
  - { offsetInCU: 0x6D27, offset: 0x1CF57, size: 0x8, addend: 0x0, symName: __ZNK8Employee11getJobTitleEv, symObjAddr: 0x410, symBinAddr: 0x10000BBAC, symSize: 0x3C }
  - { offsetInCU: 0x6D4E, offset: 0x1CF7E, size: 0x8, addend: 0x0, symName: __ZNK8Employee9getSalaryEv, symObjAddr: 0x44C, symBinAddr: 0x10000BBE8, symSize: 0x18 }
  - { offsetInCU: 0x6D75, offset: 0x1CFA5, size: 0x8, addend: 0x0, symName: __ZNK8Employee11getHireYearEv, symObjAddr: 0x464, symBinAddr: 0x10000BC00, symSize: 0x18 }
  - { offsetInCU: 0x6D9C, offset: 0x1CFCC, size: 0x8, addend: 0x0, symName: __ZN8Employee5printEv, symObjAddr: 0x47C, symBinAddr: 0x10000BC18, symSize: 0x24C }
  - { offsetInCU: 0x6DC3, offset: 0x1CFF3, size: 0x8, addend: 0x0, symName: __ZNSt3__113basic_ostreamIcNS_11char_traitsIcEEElsB7v160006EPFRNS_8ios_baseES5_E, symObjAddr: 0x834, symBinAddr: 0x10000BFD0, symSize: 0x40 }
  - { offsetInCU: 0x6DF6, offset: 0x1D026, size: 0x8, addend: 0x0, symName: __ZNSt3__18__iom_t6C1B7v160006Ei, symObjAddr: 0x8A4, symBinAddr: 0x10000C040, symSize: 0x34 }
  - { offsetInCU: 0x6E2C, offset: 0x1D05C, size: 0x8, addend: 0x0, symName: __ZNSt3__18__iom_t6C2B7v160006Ei, symObjAddr: 0x8D8, symBinAddr: 0x10000C074, symSize: 0x20 }
  - { offsetInCU: 0x6E63, offset: 0x1D093, size: 0x8, addend: 0x0, symName: __ZNSt3__18__iom_t5C1B7v160006Ei, symObjAddr: 0x8F8, symBinAddr: 0x10000C094, symSize: 0x34 }
  - { offsetInCU: 0x6E99, offset: 0x1D0C9, size: 0x8, addend: 0x0, symName: __ZNSt3__18__iom_t5C2B7v160006Ei, symObjAddr: 0x92C, symBinAddr: 0x10000C0C8, symSize: 0x20 }
  - { offsetInCU: 0x6ED0, offset: 0x1D100, size: 0x8, addend: 0x0, symName: __ZNSt3__18ios_base4setfB7v160006Ejj, symObjAddr: 0x94C, symBinAddr: 0x10000C0E8, symSize: 0x5C }
  - { offsetInCU: 0x6F24, offset: 0x1D154, size: 0x8, addend: 0x0, symName: __ZNSt3__18ios_base6unsetfB7v160006Ej, symObjAddr: 0x9A8, symBinAddr: 0x10000C144, symSize: 0x28 }
  - { offsetInCU: 0x6F5A, offset: 0x1D18A, size: 0x8, addend: 0x0, symName: __ZNSt3__18ios_base5widthB7v160006El, symObjAddr: 0xF80, symBinAddr: 0x10000C16C, symSize: 0x2C }
  - { offsetInCU: 0x6FBD, offset: 0x1D1ED, size: 0x8, addend: 0x0, symName: __ZNKSt3__113basic_ostreamIcNS_11char_traitsIcEEE6sentrycvbB7v160006Ev, symObjAddr: 0x121C, symBinAddr: 0x10000C38C, symSize: 0x1C }
  - { offsetInCU: 0x6FE1, offset: 0x1D211, size: 0x8, addend: 0x0, symName: __ZNSt3__119ostreambuf_iteratorIcNS_11char_traitsIcEEEC1B7v160006ERNS_13basic_ostreamIcS2_EE, symObjAddr: 0x1480, symBinAddr: 0x10000C5F0, symSize: 0x34 }
  - { offsetInCU: 0x7018, offset: 0x1D248, size: 0x8, addend: 0x0, symName: __ZNKSt3__18ios_base5flagsB7v160006Ev, symObjAddr: 0x14B4, symBinAddr: 0x10000C624, symSize: 0x18 }
  - { offsetInCU: 0x703E, offset: 0x1D26E, size: 0x8, addend: 0x0, symName: __ZNKSt3__19basic_iosIcNS_11char_traitsIcEEE4fillB7v160006Ev, symObjAddr: 0x14CC, symBinAddr: 0x10000C63C, symSize: 0x64 }
  - { offsetInCU: 0x7065, offset: 0x1D295, size: 0x8, addend: 0x0, symName: __ZNKSt3__119ostreambuf_iteratorIcNS_11char_traitsIcEEE6failedB7v160006Ev, symObjAddr: 0x1530, symBinAddr: 0x10000C6A0, symSize: 0x24 }
  - { offsetInCU: 0x7089, offset: 0x1D2B9, size: 0x8, addend: 0x0, symName: __ZNSt3__19basic_iosIcNS_11char_traitsIcEEE8setstateB7v160006Ej, symObjAddr: 0x1554, symBinAddr: 0x10000C6C4, symSize: 0x2C }
  - { offsetInCU: 0x70BE, offset: 0x1D2EE, size: 0x8, addend: 0x0, symName: __ZNKSt3__18ios_base5widthB7v160006Ev, symObjAddr: 0x1580, symBinAddr: 0x10000C6F0, symSize: 0x18 }
  - { offsetInCU: 0x70E4, offset: 0x1D314, size: 0x8, addend: 0x0, symName: __ZNSt3__115basic_streambufIcNS_11char_traitsIcEEE5sputnB7v160006EPKcl, symObjAddr: 0x1598, symBinAddr: 0x10000C708, symSize: 0x3C }
  - { offsetInCU: 0x7125, offset: 0x1D355, size: 0x8, addend: 0x0, symName: __ZNSt3__112basic_stringIcNS_11char_traitsIcEENS_9allocatorIcEEEC1B7v160006Emc, symObjAddr: 0x15D4, symBinAddr: 0x10000C744, symSize: 0x3C }
  - { offsetInCU: 0x716B, offset: 0x1D39B, size: 0x8, addend: 0x0, symName: __ZNSt3__112basic_stringIcNS_11char_traitsIcEENS_9allocatorIcEEEC2B7v160006Emc, symObjAddr: 0x1610, symBinAddr: 0x10000C780, symSize: 0x54 }
  - { offsetInCU: 0x71B1, offset: 0x1D3E1, size: 0x8, addend: 0x0, symName: __ZNSt3__119ostreambuf_iteratorIcNS_11char_traitsIcEEEC2B7v160006ERNS_13basic_ostreamIcS2_EE, symObjAddr: 0x1664, symBinAddr: 0x10000C7D4, symSize: 0x68 }
  - { offsetInCU: 0x71E7, offset: 0x1D417, size: 0x8, addend: 0x0, symName: __ZNKSt3__19basic_iosIcNS_11char_traitsIcEEE5rdbufB7v160006Ev, symObjAddr: 0x16CC, symBinAddr: 0x10000C83C, symSize: 0x24 }
  - { offsetInCU: 0x720E, offset: 0x1D43E, size: 0x8, addend: 0x0, symName: __ZNKSt3__18ios_base5rdbufB7v160006Ev, symObjAddr: 0x16F0, symBinAddr: 0x10000C860, symSize: 0x18 }
  - { offsetInCU: 0x7233, offset: 0x1D463, size: 0x8, addend: 0x0, symName: __ZNSt3__111char_traitsIcE11eq_int_typeEii, symObjAddr: 0x1708, symBinAddr: 0x10000C878, symSize: 0x28 }
  - { offsetInCU: 0x7264, offset: 0x1D494, size: 0x8, addend: 0x0, symName: __ZNSt3__111char_traitsIcE3eofEv, symObjAddr: 0x1730, symBinAddr: 0x10000C8A0, symSize: 0x8 }
  - { offsetInCU: 0x7277, offset: 0x1D4A7, size: 0x8, addend: 0x0, symName: __ZNKSt3__19basic_iosIcNS_11char_traitsIcEEE5widenB7v160006Ec, symObjAddr: 0x1738, symBinAddr: 0x10000C8A8, symSize: 0x8C }
  - { offsetInCU: 0x72E3, offset: 0x1D513, size: 0x8, addend: 0x0, symName: __ZNKSt3__15ctypeIcE5widenB7v160006Ec, symObjAddr: 0x17F0, symBinAddr: 0x10000C960, symSize: 0x38 }
  - { offsetInCU: 0x7317, offset: 0x1D547, size: 0x8, addend: 0x0, symName: __ZNSt3__18ios_base8setstateB7v160006Ej, symObjAddr: 0x1828, symBinAddr: 0x10000C998, symSize: 0x34 }
  - { offsetInCU: 0x734D, offset: 0x1D57D, size: 0x8, addend: 0x0, symName: __ZNSt3__18ios_base9precisionB7v160006El, symObjAddr: 0x1A30, symBinAddr: 0x10000C9CC, symSize: 0x2C }
  - { offsetInCU: 0x7392, offset: 0x1D5C2, size: 0x8, addend: 0x0, symName: __ZNSt3__111char_traitsIcE6lengthEPKc, symObjAddr: 0x1A5C, symBinAddr: 0x10000C9F8, symSize: 0x48 }
  - { offsetInCU: 0x961D, offset: 0x26C60, size: 0x8, addend: 0x0, symName: __ZNSt3__14endlB7v160006IcNS_11char_traitsIcEEEERNS_13basic_ostreamIT_T0_EES7_, symObjAddr: 0x1BCC, symBinAddr: 0x10000E404, symSize: 0x58 }
  - { offsetInCU: 0x965D, offset: 0x26CA0, size: 0x8, addend: 0x0, symName: __ZNSt3__119__allocate_at_leastB7v160006INS_9allocatorI8EmployeeEEEENS_19__allocation_resultINS_16allocator_traitsIT_E7pointerEEERS6_m, symObjAddr: 0x2E98, symBinAddr: 0x10000EC58, symSize: 0x40 }
  - { offsetInCU: 0x96A0, offset: 0x26CE3, size: 0x8, addend: 0x0, symName: __ZNSt3__142__uninitialized_allocator_move_if_noexceptB7v160006INS_9allocatorI8EmployeeEENS_16reverse_iteratorIPS2_EES6_S6_EET2_RT_T0_T1_S7_, symObjAddr: 0x31FC, symBinAddr: 0x10000EE40, symSize: 0x134 }
  - { offsetInCU: 0x9740, offset: 0x26D83, size: 0x8, addend: 0x0, symName: __ZNSt3__14swapB7v160006IP8EmployeeEEvRT_S4_, symObjAddr: 0x337C, symBinAddr: 0x10000EFC0, symSize: 0x3C }
  - { offsetInCU: 0x9791, offset: 0x26DD4, size: 0x8, addend: 0x0, symName: __ZNSt3__125__debug_db_invalidate_allB7v160006INS_6vectorI8EmployeeNS_9allocatorIS2_EEEEEEvPT_, symObjAddr: 0x3480, symBinAddr: 0x10000F0C4, symSize: 0x10 }
  - { offsetInCU: 0x97C2, offset: 0x26E05, size: 0x8, addend: 0x0, symName: __ZNSt3__122__make_exception_guardB7v160006INS_29_AllocatorDestroyRangeReverseINS_9allocatorI8EmployeeEENS_16reverse_iteratorIPS3_EEEEEENS_28__exception_guard_exceptionsIT_EESA_, symObjAddr: 0x34D8, symBinAddr: 0x10000F0D4, symSize: 0x4C }
  - { offsetInCU: 0x97F8, offset: 0x26E3B, size: 0x8, addend: 0x0, symName: __ZNSt3__1neB7v160006IP8EmployeeS2_EEbRKNS_16reverse_iteratorIT_EERKNS3_IT0_EE, symObjAddr: 0x3568, symBinAddr: 0x10000F164, symSize: 0x48 }
  - { offsetInCU: 0x9844, offset: 0x26E87, size: 0x8, addend: 0x0, symName: __ZNSt3__112__to_addressB7v160006INS_16reverse_iteratorIP8EmployeeEEvEENS_5decayIDTclsr19__to_address_helperIT_EE6__callclsr3stdE7declvalIRKS6_EEEEE4typeES8_, symObjAddr: 0x35B0, symBinAddr: 0x10000F1AC, symSize: 0x24 }
  - { offsetInCU: 0x98A3, offset: 0x26EE6, size: 0x8, addend: 0x0, symName: __ZNSt3__119__allocator_destroyB7v160006INS_9allocatorI8EmployeeEENS_16reverse_iteratorINS4_IPS2_EEEES7_EEvRT_T0_T1_, symObjAddr: 0x386C, symBinAddr: 0x10000F468, symSize: 0x70 }
  - { offsetInCU: 0x9908, offset: 0x26F4B, size: 0x8, addend: 0x0, symName: __ZNSt3__1neB7v160006INS_16reverse_iteratorIP8EmployeeEES4_EEbRKNS1_IT_EERKNS1_IT0_EE, symObjAddr: 0x3918, symBinAddr: 0x10000F514, symSize: 0x60 }
  - { offsetInCU: 0x9954, offset: 0x26F97, size: 0x8, addend: 0x0, symName: __ZNSt3__112__to_addressB7v160006INS_16reverse_iteratorINS1_IP8EmployeeEEEEvEENS_5decayIDTclsr19__to_address_helperIT_EE6__callclsr3stdE7declvalIRKS7_EEEEE4typeES9_, symObjAddr: 0x39A4, symBinAddr: 0x10000F574, symSize: 0x24 }
  - { offsetInCU: 0x99B3, offset: 0x26FF6, size: 0x8, addend: 0x0, symName: __ZNSt3__119__allocate_at_leastB7v160006INS_9allocatorI17SoftwareArchitectEEEENS_19__allocation_resultINS_16allocator_traitsIT_E7pointerEEERS6_m, symObjAddr: 0x60AC, symBinAddr: 0x100010164, symSize: 0x40 }
  - { offsetInCU: 0x99F6, offset: 0x27039, size: 0x8, addend: 0x0, symName: __ZNSt3__142__uninitialized_allocator_move_if_noexceptB7v160006INS_9allocatorI17SoftwareArchitectEENS_16reverse_iteratorIPS2_EES6_S6_EET2_RT_T0_T1_S7_, symObjAddr: 0x6384, symBinAddr: 0x10001034C, symSize: 0x134 }
  - { offsetInCU: 0x9A96, offset: 0x270D9, size: 0x8, addend: 0x0, symName: __ZNSt3__14swapB7v160006IP17SoftwareArchitectEEvRT_S4_, symObjAddr: 0x6504, symBinAddr: 0x1000104CC, symSize: 0x3C }
  - { offsetInCU: 0x9AE7, offset: 0x2712A, size: 0x8, addend: 0x0, symName: __ZNSt3__125__debug_db_invalidate_allB7v160006INS_6vectorI17SoftwareArchitectNS_9allocatorIS2_EEEEEEvPT_, symObjAddr: 0x6608, symBinAddr: 0x1000105D0, symSize: 0x10 }
  - { offsetInCU: 0x9B18, offset: 0x2715B, size: 0x8, addend: 0x0, symName: __ZNSt3__122__make_exception_guardB7v160006INS_29_AllocatorDestroyRangeReverseINS_9allocatorI17SoftwareArchitectEENS_16reverse_iteratorIPS3_EEEEEENS_28__exception_guard_exceptionsIT_EESA_, symObjAddr: 0x6660, symBinAddr: 0x1000105E0, symSize: 0x4C }
  - { offsetInCU: 0x9B4E, offset: 0x27191, size: 0x8, addend: 0x0, symName: __ZNSt3__1neB7v160006IP17SoftwareArchitectS2_EEbRKNS_16reverse_iteratorIT_EERKNS3_IT0_EE, symObjAddr: 0x66F0, symBinAddr: 0x100010670, symSize: 0x48 }
  - { offsetInCU: 0x9B9A, offset: 0x271DD, size: 0x8, addend: 0x0, symName: __ZNSt3__112__to_addressB7v160006INS_16reverse_iteratorIP17SoftwareArchitectEEvEENS_5decayIDTclsr19__to_address_helperIT_EE6__callclsr3stdE7declvalIRKS6_EEEEE4typeES8_, symObjAddr: 0x6738, symBinAddr: 0x1000106B8, symSize: 0x24 }
  - { offsetInCU: 0x9BF9, offset: 0x2723C, size: 0x8, addend: 0x0, symName: __ZNSt3__119__allocator_destroyB7v160006INS_9allocatorI17SoftwareArchitectEENS_16reverse_iteratorINS4_IPS2_EEEES7_EEvRT_T0_T1_, symObjAddr: 0x69F4, symBinAddr: 0x100010974, symSize: 0x70 }
  - { offsetInCU: 0x9C5E, offset: 0x272A1, size: 0x8, addend: 0x0, symName: __ZNSt3__1neB7v160006INS_16reverse_iteratorIP17SoftwareArchitectEES4_EEbRKNS1_IT_EERKNS1_IT0_EE, symObjAddr: 0x6AA0, symBinAddr: 0x100010A20, symSize: 0x60 }
  - { offsetInCU: 0x9CAA, offset: 0x272ED, size: 0x8, addend: 0x0, symName: __ZNSt3__112__to_addressB7v160006INS_16reverse_iteratorINS1_IP17SoftwareArchitectEEEEvEENS_5decayIDTclsr19__to_address_helperIT_EE6__callclsr3stdE7declvalIRKS7_EEEEE4typeES9_, symObjAddr: 0x6B2C, symBinAddr: 0x100010A80, symSize: 0x24 }
  - { offsetInCU: 0xA728, offset: 0x27D6B, size: 0x8, addend: 0x0, symName: __ZNSt3__16vectorI8EmployeeNS_9allocatorIS1_EEE26__swap_out_circular_bufferERNS_14__split_bufferIS1_RS3_EE, symObjAddr: 0x2830, symBinAddr: 0x10000E8C4, symSize: 0x118 }
  - { offsetInCU: 0xA7B9, offset: 0x27DFC, size: 0x8, addend: 0x0, symName: __ZNSt3__16vectorI17SoftwareArchitectNS_9allocatorIS1_EEE26__swap_out_circular_bufferERNS_14__split_bufferIS1_RS3_EE, symObjAddr: 0x5C78, symBinAddr: 0x10000FDD0, symSize: 0x118 }
  - { offsetInCU: 0xC643, offset: 0x29C86, size: 0x8, addend: 0x0, symName: _main, symObjAddr: 0x0, symBinAddr: 0x10000CA64, symSize: 0x15F0 }
  - { offsetInCU: 0xC7F8, offset: 0x29E3B, size: 0x8, addend: 0x0, symName: __ZNSt3__112basic_stringIcNS_11char_traitsIcEENS_9allocatorIcEEEC1B7v160006IDnEEPKc, symObjAddr: 0x15F0, symBinAddr: 0x10000E054, symSize: 0x34 }
  - { offsetInCU: 0xC833, offset: 0x29E76, size: 0x8, addend: 0x0, symName: __ZNSt3__16vectorI8EmployeeNS_9allocatorIS1_EEE9push_backB7v160006ERKS1_, symObjAddr: 0x1630, symBinAddr: 0x10000E088, symSize: 0x6C }
  - { offsetInCU: 0xC868, offset: 0x29EAB, size: 0x8, addend: 0x0, symName: __ZNSt3__16vectorI17SoftwareArchitectNS_9allocatorIS1_EEE9push_backB7v160006ERKS1_, symObjAddr: 0x1708, symBinAddr: 0x10000E0F4, symSize: 0x6C }
  - { offsetInCU: 0xC89E, offset: 0x29EE1, size: 0x8, addend: 0x0, symName: __Z11printHeaderv, symObjAddr: 0x17BC, symBinAddr: 0x10000E160, symSize: 0x1E4 }
  - { offsetInCU: 0xC8B7, offset: 0x29EFA, size: 0x8, addend: 0x0, symName: __ZNSt3__16vectorIP8EmployeeNS_9allocatorIS2_EEE2atEm, symObjAddr: 0x19C8, symBinAddr: 0x10000E344, symSize: 0x60 }
  - { offsetInCU: 0xC8ED, offset: 0x29F30, size: 0x8, addend: 0x0, symName: __ZN8EmployeeC1ERKS_, symObjAddr: 0x1A28, symBinAddr: 0x10000E3A4, symSize: 0x34 }
  - { offsetInCU: 0xC920, offset: 0x29F63, size: 0x8, addend: 0x0, symName: __ZNSt3__113basic_ostreamIcNS_11char_traitsIcEEElsB7v160006EPFRS3_S4_E, symObjAddr: 0x1BA0, symBinAddr: 0x10000E3D8, symSize: 0x2C }
  - { offsetInCU: 0xC953, offset: 0x29F96, size: 0x8, addend: 0x0, symName: __ZNSt3__112basic_stringIcNS_11char_traitsIcEENS_9allocatorIcEEEC2B7v160006IDnEEPKc, symObjAddr: 0x21B8, symBinAddr: 0x10000E45C, symSize: 0x60 }
  - { offsetInCU: 0xC98F, offset: 0x29FD2, size: 0x8, addend: 0x0, symName: __ZNSt3__16vectorI8EmployeeNS_9allocatorIS1_EEE9__end_capB7v160006Ev, symObjAddr: 0x238C, symBinAddr: 0x10000E4BC, symSize: 0x28 }
  - { offsetInCU: 0xC9B4, offset: 0x29FF7, size: 0x8, addend: 0x0, symName: __ZNSt3__16vectorI8EmployeeNS_9allocatorIS1_EEE22__construct_one_at_endB7v160006IJRKS1_EEEvDpOT_, symObjAddr: 0x23B4, symBinAddr: 0x10000E4E4, symSize: 0x98 }
  - { offsetInCU: 0xCA01, offset: 0x2A044, size: 0x8, addend: 0x0, symName: __ZNSt3__16vectorI8EmployeeNS_9allocatorIS1_EEE21__push_back_slow_pathIRKS1_EEvOT_, symObjAddr: 0x244C, symBinAddr: 0x10000E57C, symSize: 0xE0 }
  - { offsetInCU: 0xCA5E, offset: 0x2A0A1, size: 0x8, addend: 0x0, symName: __ZNSt3__117__compressed_pairIP8EmployeeNS_9allocatorIS1_EEE5firstB7v160006Ev, symObjAddr: 0x252C, symBinAddr: 0x10000E65C, symSize: 0x24 }
  - { offsetInCU: 0xCA83, offset: 0x2A0C6, size: 0x8, addend: 0x0, symName: __ZNSt3__122__compressed_pair_elemIP8EmployeeLi0ELb0EE5__getB7v160006Ev, symObjAddr: 0x2550, symBinAddr: 0x10000E680, symSize: 0x14 }
  - { offsetInCU: 0xCAC1, offset: 0x2A104, size: 0x8, addend: 0x0, symName: __ZNSt3__16vectorI8EmployeeNS_9allocatorIS1_EEE21_ConstructTransactionC1B7v160006ERS4_m, symObjAddr: 0x2564, symBinAddr: 0x10000E694, symSize: 0x3C }
  - { offsetInCU: 0xCB07, offset: 0x2A14A, size: 0x8, addend: 0x0, symName: __ZNSt3__116allocator_traitsINS_9allocatorI8EmployeeEEE9constructB7v160006IS2_JRKS2_EvEEvRS3_PT_DpOT0_, symObjAddr: 0x25A0, symBinAddr: 0x10000E6D0, symSize: 0x34 }
  - { offsetInCU: 0xCB5E, offset: 0x2A1A1, size: 0x8, addend: 0x0, symName: __ZNSt3__16vectorI8EmployeeNS_9allocatorIS1_EEE21_ConstructTransactionD1B7v160006Ev, symObjAddr: 0x2610, symBinAddr: 0x10000E704, symSize: 0x2C }
  - { offsetInCU: 0xCB86, offset: 0x2A1C9, size: 0x8, addend: 0x0, symName: __ZNSt3__16vectorI8EmployeeNS_9allocatorIS1_EEE21_ConstructTransactionC2B7v160006ERS4_m, symObjAddr: 0x263C, symBinAddr: 0x10000E730, symSize: 0x4C }
  - { offsetInCU: 0xCBCD, offset: 0x2A210, size: 0x8, addend: 0x0, symName: __ZNSt3__19allocatorI8EmployeeE9constructB7v160006IS1_JRKS1_EEEvPT_DpOT0_, symObjAddr: 0x2688, symBinAddr: 0x10000E77C, symSize: 0x30 }
  - { offsetInCU: 0xCC22, offset: 0x2A265, size: 0x8, addend: 0x0, symName: __ZNSt3__16vectorI8EmployeeNS_9allocatorIS1_EEE21_ConstructTransactionD2B7v160006Ev, symObjAddr: 0x26F0, symBinAddr: 0x10000E7AC, symSize: 0x20 }
  - { offsetInCU: 0xCC4A, offset: 0x2A28D, size: 0x8, addend: 0x0, symName: __ZNKSt3__16vectorI8EmployeeNS_9allocatorIS1_EEE11__recommendB7v160006Em, symObjAddr: 0x2710, symBinAddr: 0x10000E7CC, symSize: 0xB4 }
  - { offsetInCU: 0xCC9E, offset: 0x2A2E1, size: 0x8, addend: 0x0, symName: __ZNSt3__114__split_bufferI8EmployeeRNS_9allocatorIS1_EEEC1EmmS4_, symObjAddr: 0x27EC, symBinAddr: 0x10000E880, symSize: 0x44 }
  - { offsetInCU: 0xCCF3, offset: 0x2A336, size: 0x8, addend: 0x0, symName: __ZNSt3__114__split_bufferI8EmployeeRNS_9allocatorIS1_EEED1Ev, symObjAddr: 0x2948, symBinAddr: 0x10000E9DC, symSize: 0x2C }
  - { offsetInCU: 0xCD1D, offset: 0x2A360, size: 0x8, addend: 0x0, symName: __ZNKSt3__16vectorI8EmployeeNS_9allocatorIS1_EEE8max_sizeEv, symObjAddr: 0x2974, symBinAddr: 0x10000EA08, symSize: 0x74 }
  - { offsetInCU: 0xCD44, offset: 0x2A387, size: 0x8, addend: 0x0, symName: __ZNKSt3__16vectorI8EmployeeNS_9allocatorIS1_EEE20__throw_length_errorB7v160006Ev, symObjAddr: 0x29E8, symBinAddr: 0x10000EA7C, symSize: 0x1C }
  - { offsetInCU: 0xCD73, offset: 0x2A3B6, size: 0x8, addend: 0x0, symName: __ZNSt3__116allocator_traitsINS_9allocatorI8EmployeeEEE8max_sizeB7v160006IS3_vEEmRKS3_, symObjAddr: 0x2A9C, symBinAddr: 0x10000EA98, symSize: 0x24 }
  - { offsetInCU: 0xCDA1, offset: 0x2A3E4, size: 0x8, addend: 0x0, symName: __ZNKSt3__16vectorI8EmployeeNS_9allocatorIS1_EEE7__allocB7v160006Ev, symObjAddr: 0x2AC0, symBinAddr: 0x10000EABC, symSize: 0x28 }
  - { offsetInCU: 0xCDC6, offset: 0x2A409, size: 0x8, addend: 0x0, symName: __ZNKSt3__19allocatorI8EmployeeE8max_sizeB7v160006Ev, symObjAddr: 0x2B84, symBinAddr: 0x10000EAE4, symSize: 0x20 }
  - { offsetInCU: 0xCDEB, offset: 0x2A42E, size: 0x8, addend: 0x0, symName: __ZNKSt3__117__compressed_pairIP8EmployeeNS_9allocatorIS1_EEE6secondB7v160006Ev, symObjAddr: 0x2BA4, symBinAddr: 0x10000EB04, symSize: 0x24 }
  - { offsetInCU: 0xCE10, offset: 0x2A453, size: 0x8, addend: 0x0, symName: __ZNKSt3__122__compressed_pair_elemINS_9allocatorI8EmployeeEELi1ELb1EE5__getB7v160006Ev, symObjAddr: 0x2BC8, symBinAddr: 0x10000EB28, symSize: 0x14 }
  - { offsetInCU: 0xCE35, offset: 0x2A478, size: 0x8, addend: 0x0, symName: __ZNSt3__114__split_bufferI8EmployeeRNS_9allocatorIS1_EEEC2EmmS4_, symObjAddr: 0x2D7C, symBinAddr: 0x10000EB3C, symSize: 0xE0 }
  - { offsetInCU: 0xCEAD, offset: 0x2A4F0, size: 0x8, addend: 0x0, symName: __ZNSt3__117__compressed_pairIP8EmployeeRNS_9allocatorIS1_EEEC1B7v160006IDnS5_EEOT_OT0_, symObjAddr: 0x2E5C, symBinAddr: 0x10000EC1C, symSize: 0x3C }
  - { offsetInCU: 0xCF03, offset: 0x2A546, size: 0x8, addend: 0x0, symName: __ZNSt3__114__split_bufferI8EmployeeRNS_9allocatorIS1_EEE7__allocB7v160006Ev, symObjAddr: 0x2ED8, symBinAddr: 0x10000EC98, symSize: 0x28 }
  - { offsetInCU: 0xCF28, offset: 0x2A56B, size: 0x8, addend: 0x0, symName: __ZNSt3__114__split_bufferI8EmployeeRNS_9allocatorIS1_EEE9__end_capB7v160006Ev, symObjAddr: 0x2F00, symBinAddr: 0x10000ECC0, symSize: 0x28 }
  - { offsetInCU: 0xCF4D, offset: 0x2A590, size: 0x8, addend: 0x0, symName: __ZNSt3__117__compressed_pairIP8EmployeeRNS_9allocatorIS1_EEEC2B7v160006IDnS5_EEOT_OT0_, symObjAddr: 0x2F28, symBinAddr: 0x10000ECE8, symSize: 0x48 }
  - { offsetInCU: 0xCFA3, offset: 0x2A5E6, size: 0x8, addend: 0x0, symName: __ZNSt3__122__compressed_pair_elemIRNS_9allocatorI8EmployeeEELi1ELb0EEC2B7v160006IS4_vEEOT_, symObjAddr: 0x2F8C, symBinAddr: 0x10000ED30, symSize: 0x20 }
  - { offsetInCU: 0xCFE4, offset: 0x2A627, size: 0x8, addend: 0x0, symName: __ZNSt3__19allocatorI8EmployeeE8allocateB7v160006Em, symObjAddr: 0x2FAC, symBinAddr: 0x10000ED50, symSize: 0x8C }
  - { offsetInCU: 0xD017, offset: 0x2A65A, size: 0x8, addend: 0x0, symName: __ZNSt3__117__compressed_pairIP8EmployeeRNS_9allocatorIS1_EEE6secondB7v160006Ev, symObjAddr: 0x30C4, symBinAddr: 0x10000EDDC, symSize: 0x28 }
  - { offsetInCU: 0xD03C, offset: 0x2A67F, size: 0x8, addend: 0x0, symName: __ZNSt3__122__compressed_pair_elemIRNS_9allocatorI8EmployeeEELi1ELb0EE5__getB7v160006Ev, symObjAddr: 0x30EC, symBinAddr: 0x10000EE04, symSize: 0x18 }
  - { offsetInCU: 0xD061, offset: 0x2A6A4, size: 0x8, addend: 0x0, symName: __ZNSt3__117__compressed_pairIP8EmployeeRNS_9allocatorIS1_EEE5firstB7v160006Ev, symObjAddr: 0x3104, symBinAddr: 0x10000EE1C, symSize: 0x24 }
  - { offsetInCU: 0xD086, offset: 0x2A6C9, size: 0x8, addend: 0x0, symName: __ZNSt3__116reverse_iteratorIP8EmployeeEC1B7v160006ES2_, symObjAddr: 0x3330, symBinAddr: 0x10000EF74, symSize: 0x34 }
  - { offsetInCU: 0xD0BC, offset: 0x2A6FF, size: 0x8, addend: 0x0, symName: __ZNKSt3__116reverse_iteratorIP8EmployeeE4baseB7v160006Ev, symObjAddr: 0x3364, symBinAddr: 0x10000EFA8, symSize: 0x18 }
  - { offsetInCU: 0xD0E1, offset: 0x2A724, size: 0x8, addend: 0x0, symName: __ZNKSt3__16vectorI8EmployeeNS_9allocatorIS1_EEE14__annotate_newB7v160006Em, symObjAddr: 0x33B8, symBinAddr: 0x10000EFFC, symSize: 0xC8 }
  - { offsetInCU: 0xD115, offset: 0x2A758, size: 0x8, addend: 0x0, symName: __ZNSt3__129_AllocatorDestroyRangeReverseINS_9allocatorI8EmployeeEENS_16reverse_iteratorIPS2_EEEC1B7v160006ERS3_RS6_S9_, symObjAddr: 0x3524, symBinAddr: 0x10000F120, symSize: 0x44 }
  - { offsetInCU: 0xD16A, offset: 0x2A7AD, size: 0x8, addend: 0x0, symName: __ZNKSt3__116reverse_iteratorIP8EmployeeEdeB7v160006Ev, symObjAddr: 0x35D4, symBinAddr: 0x10000F1D0, symSize: 0x28 }
  - { offsetInCU: 0xD19D, offset: 0x2A7E0, size: 0x8, addend: 0x0, symName: __ZNSt3__116reverse_iteratorIP8EmployeeEppB7v160006Ev, symObjAddr: 0x35FC, symBinAddr: 0x10000F1F8, symSize: 0x20 }
  - { offsetInCU: 0xD1C2, offset: 0x2A805, size: 0x8, addend: 0x0, symName: __ZNSt3__128__exception_guard_exceptionsINS_29_AllocatorDestroyRangeReverseINS_9allocatorI8EmployeeEENS_16reverse_iteratorIPS3_EEEEE10__completeB7v160006Ev, symObjAddr: 0x361C, symBinAddr: 0x10000F218, symSize: 0x1C }
  - { offsetInCU: 0xD1E7, offset: 0x2A82A, size: 0x8, addend: 0x0, symName: __ZNSt3__128__exception_guard_exceptionsINS_29_AllocatorDestroyRangeReverseINS_9allocatorI8EmployeeEENS_16reverse_iteratorIPS3_EEEEED1B7v160006Ev, symObjAddr: 0x3638, symBinAddr: 0x10000F234, symSize: 0x2C }
  - { offsetInCU: 0xD20F, offset: 0x2A852, size: 0x8, addend: 0x0, symName: __ZNSt3__128__exception_guard_exceptionsINS_29_AllocatorDestroyRangeReverseINS_9allocatorI8EmployeeEENS_16reverse_iteratorIPS3_EEEEEC1B7v160006ES8_, symObjAddr: 0x3664, symBinAddr: 0x10000F260, symSize: 0x34 }
  - { offsetInCU: 0xD246, offset: 0x2A889, size: 0x8, addend: 0x0, symName: __ZNSt3__128__exception_guard_exceptionsINS_29_AllocatorDestroyRangeReverseINS_9allocatorI8EmployeeEENS_16reverse_iteratorIPS3_EEEEEC2B7v160006ES8_, symObjAddr: 0x3698, symBinAddr: 0x10000F294, symSize: 0x30 }
  - { offsetInCU: 0xD27E, offset: 0x2A8C1, size: 0x8, addend: 0x0, symName: __ZNSt3__129_AllocatorDestroyRangeReverseINS_9allocatorI8EmployeeEENS_16reverse_iteratorIPS2_EEEC2B7v160006ERS3_RS6_S9_, symObjAddr: 0x36C8, symBinAddr: 0x10000F2C4, symSize: 0x38 }
  - { offsetInCU: 0xD2D9, offset: 0x2A91C, size: 0x8, addend: 0x0, symName: __ZNSt3__119__to_address_helperINS_16reverse_iteratorIP8EmployeeEEvE6__callB7v160006ERKS4_, symObjAddr: 0x3700, symBinAddr: 0x10000F2FC, symSize: 0x4C }
  - { offsetInCU: 0xD2FC, offset: 0x2A93F, size: 0x8, addend: 0x0, symName: __ZNKSt3__116reverse_iteratorIP8EmployeeEptB7v160006Ev, symObjAddr: 0x374C, symBinAddr: 0x10000F348, symSize: 0x24 }
  - { offsetInCU: 0xD321, offset: 0x2A964, size: 0x8, addend: 0x0, symName: __ZNSt3__128__exception_guard_exceptionsINS_29_AllocatorDestroyRangeReverseINS_9allocatorI8EmployeeEENS_16reverse_iteratorIPS3_EEEEED2B7v160006Ev, symObjAddr: 0x3770, symBinAddr: 0x10000F36C, symSize: 0x48 }
  - { offsetInCU: 0xD349, offset: 0x2A98C, size: 0x8, addend: 0x0, symName: __ZNKSt3__129_AllocatorDestroyRangeReverseINS_9allocatorI8EmployeeEENS_16reverse_iteratorIPS2_EEEclB7v160006Ev, symObjAddr: 0x37B8, symBinAddr: 0x10000F3B4, symSize: 0xB4 }
  - { offsetInCU: 0xD36F, offset: 0x2A9B2, size: 0x8, addend: 0x0, symName: __ZNSt3__116reverse_iteratorINS0_IP8EmployeeEEEC1B7v160006ES3_, symObjAddr: 0x38DC, symBinAddr: 0x10000F4D8, symSize: 0x3C }
  - { offsetInCU: 0xD3A5, offset: 0x2A9E8, size: 0x8, addend: 0x0, symName: __ZNSt3__116reverse_iteratorINS0_IP8EmployeeEEEppB7v160006Ev, symObjAddr: 0x39C8, symBinAddr: 0x10000F598, symSize: 0x30 }
  - { offsetInCU: 0xD3CA, offset: 0x2AA0D, size: 0x8, addend: 0x0, symName: __ZNKSt3__116reverse_iteratorINS0_IP8EmployeeEEE4baseB7v160006Ev, symObjAddr: 0x39F8, symBinAddr: 0x10000F5C8, symSize: 0x24 }
  - { offsetInCU: 0xD3F4, offset: 0x2AA37, size: 0x8, addend: 0x0, symName: __ZNSt3__119__to_address_helperINS_16reverse_iteratorINS1_IP8EmployeeEEEEvE6__callB7v160006ERKS5_, symObjAddr: 0x3A44, symBinAddr: 0x10000F5EC, symSize: 0x4C }
  - { offsetInCU: 0xD417, offset: 0x2AA5A, size: 0x8, addend: 0x0, symName: __ZNKSt3__116reverse_iteratorINS0_IP8EmployeeEEEptB7v160006Ev, symObjAddr: 0x3A90, symBinAddr: 0x10000F638, symSize: 0x24 }
  - { offsetInCU: 0xD43C, offset: 0x2AA7F, size: 0x8, addend: 0x0, symName: __ZNKSt3__116reverse_iteratorINS0_IP8EmployeeEEEdeB7v160006Ev, symObjAddr: 0x3AB4, symBinAddr: 0x10000F65C, symSize: 0x34 }
  - { offsetInCU: 0xD46F, offset: 0x2AAB2, size: 0x8, addend: 0x0, symName: __ZNSt3__116reverse_iteratorIP8EmployeeEmmB7v160006Ev, symObjAddr: 0x3AE8, symBinAddr: 0x10000F690, symSize: 0x20 }
  - { offsetInCU: 0xD494, offset: 0x2AAD7, size: 0x8, addend: 0x0, symName: __ZNSt3__116reverse_iteratorINS0_IP8EmployeeEEEC2B7v160006ES3_, symObjAddr: 0x3B08, symBinAddr: 0x10000F6B0, symSize: 0x2C }
  - { offsetInCU: 0xD4CB, offset: 0x2AB0E, size: 0x8, addend: 0x0, symName: __ZNSt3__116reverse_iteratorIP8EmployeeEC2B7v160006ES2_, symObjAddr: 0x3B34, symBinAddr: 0x10000F6DC, symSize: 0x28 }
  - { offsetInCU: 0xD502, offset: 0x2AB45, size: 0x8, addend: 0x0, symName: __ZNSt3__114__split_bufferI8EmployeeRNS_9allocatorIS1_EEED2Ev, symObjAddr: 0x3B5C, symBinAddr: 0x10000F704, symSize: 0x80 }
  - { offsetInCU: 0xD52D, offset: 0x2AB70, size: 0x8, addend: 0x0, symName: __ZNSt3__114__split_bufferI8EmployeeRNS_9allocatorIS1_EEE5clearB7v160006Ev, symObjAddr: 0x3BDC, symBinAddr: 0x10000F784, symSize: 0x28 }
  - { offsetInCU: 0xD552, offset: 0x2AB95, size: 0x8, addend: 0x0, symName: __ZNKSt3__114__split_bufferI8EmployeeRNS_9allocatorIS1_EEE8capacityB7v160006Ev, symObjAddr: 0x3C38, symBinAddr: 0x10000F7AC, symSize: 0x40 }
  - { offsetInCU: 0xD577, offset: 0x2ABBA, size: 0x8, addend: 0x0, symName: __ZNSt3__114__split_bufferI8EmployeeRNS_9allocatorIS1_EEE17__destruct_at_endB7v160006EPS1_, symObjAddr: 0x3C78, symBinAddr: 0x10000F7EC, symSize: 0x2C }
  - { offsetInCU: 0xD5A9, offset: 0x2ABEC, size: 0x8, addend: 0x0, symName: __ZNSt3__114__split_bufferI8EmployeeRNS_9allocatorIS1_EEE17__destruct_at_endB7v160006EPS1_NS_17integral_constantIbLb0EEE, symObjAddr: 0x3CA4, symBinAddr: 0x10000F818, symSize: 0x94 }
  - { offsetInCU: 0xD5E9, offset: 0x2AC2C, size: 0x8, addend: 0x0, symName: __ZNKSt3__114__split_bufferI8EmployeeRNS_9allocatorIS1_EEE9__end_capB7v160006Ev, symObjAddr: 0x3E28, symBinAddr: 0x10000F8AC, symSize: 0x28 }
  - { offsetInCU: 0xD60E, offset: 0x2AC51, size: 0x8, addend: 0x0, symName: __ZNKSt3__117__compressed_pairIP8EmployeeRNS_9allocatorIS1_EEE5firstB7v160006Ev, symObjAddr: 0x3E50, symBinAddr: 0x10000F8D4, symSize: 0x24 }
  - { offsetInCU: 0xD656, offset: 0x2AC99, size: 0x8, addend: 0x0, symName: __ZNSt3__16vectorI17SoftwareArchitectNS_9allocatorIS1_EEE9__end_capB7v160006Ev, symObjAddr: 0x5704, symBinAddr: 0x10000F8F8, symSize: 0x28 }
  - { offsetInCU: 0xD67B, offset: 0x2ACBE, size: 0x8, addend: 0x0, symName: __ZNSt3__16vectorI17SoftwareArchitectNS_9allocatorIS1_EEE22__construct_one_at_endB7v160006IJRKS1_EEEvDpOT_, symObjAddr: 0x572C, symBinAddr: 0x10000F920, symSize: 0x98 }
  - { offsetInCU: 0xD6C8, offset: 0x2AD0B, size: 0x8, addend: 0x0, symName: __ZNSt3__16vectorI17SoftwareArchitectNS_9allocatorIS1_EEE21__push_back_slow_pathIRKS1_EEvOT_, symObjAddr: 0x57C4, symBinAddr: 0x10000F9B8, symSize: 0xE0 }
  - { offsetInCU: 0xD725, offset: 0x2AD68, size: 0x8, addend: 0x0, symName: __ZNSt3__117__compressed_pairIP17SoftwareArchitectNS_9allocatorIS1_EEE5firstB7v160006Ev, symObjAddr: 0x58A4, symBinAddr: 0x10000FA98, symSize: 0x24 }
  - { offsetInCU: 0xD74A, offset: 0x2AD8D, size: 0x8, addend: 0x0, symName: __ZNSt3__122__compressed_pair_elemIP17SoftwareArchitectLi0ELb0EE5__getB7v160006Ev, symObjAddr: 0x58C8, symBinAddr: 0x10000FABC, symSize: 0x14 }
  - { offsetInCU: 0xD788, offset: 0x2ADCB, size: 0x8, addend: 0x0, symName: __ZNSt3__16vectorI17SoftwareArchitectNS_9allocatorIS1_EEE21_ConstructTransactionC1B7v160006ERS4_m, symObjAddr: 0x58DC, symBinAddr: 0x10000FAD0, symSize: 0x3C }
  - { offsetInCU: 0xD7CE, offset: 0x2AE11, size: 0x8, addend: 0x0, symName: __ZNSt3__116allocator_traitsINS_9allocatorI17SoftwareArchitectEEE9constructB7v160006IS2_JRKS2_EvEEvRS3_PT_DpOT0_, symObjAddr: 0x5918, symBinAddr: 0x10000FB0C, symSize: 0x34 }
  - { offsetInCU: 0xD825, offset: 0x2AE68, size: 0x8, addend: 0x0, symName: __ZNSt3__16vectorI17SoftwareArchitectNS_9allocatorIS1_EEE21_ConstructTransactionD1B7v160006Ev, symObjAddr: 0x5988, symBinAddr: 0x10000FB40, symSize: 0x2C }
  - { offsetInCU: 0xD84D, offset: 0x2AE90, size: 0x8, addend: 0x0, symName: __ZNSt3__16vectorI17SoftwareArchitectNS_9allocatorIS1_EEE21_ConstructTransactionC2B7v160006ERS4_m, symObjAddr: 0x59B4, symBinAddr: 0x10000FB6C, symSize: 0x4C }
  - { offsetInCU: 0xD894, offset: 0x2AED7, size: 0x8, addend: 0x0, symName: __ZNSt3__19allocatorI17SoftwareArchitectE9constructB7v160006IS1_JRKS1_EEEvPT_DpOT0_, symObjAddr: 0x5A00, symBinAddr: 0x10000FBB8, symSize: 0x30 }
  - { offsetInCU: 0xD8E9, offset: 0x2AF2C, size: 0x8, addend: 0x0, symName: __ZN17SoftwareArchitectC1ERKS_, symObjAddr: 0x5A30, symBinAddr: 0x10000FBE8, symSize: 0x34 }
  - { offsetInCU: 0xD91C, offset: 0x2AF5F, size: 0x8, addend: 0x0, symName: __ZN17SoftwareArchitectC2ERKS_, symObjAddr: 0x5A64, symBinAddr: 0x10000FC1C, symSize: 0x9C }
  - { offsetInCU: 0xD94F, offset: 0x2AF92, size: 0x8, addend: 0x0, symName: __ZNSt3__16vectorI17SoftwareArchitectNS_9allocatorIS1_EEE21_ConstructTransactionD2B7v160006Ev, symObjAddr: 0x5B38, symBinAddr: 0x10000FCB8, symSize: 0x20 }
  - { offsetInCU: 0xD977, offset: 0x2AFBA, size: 0x8, addend: 0x0, symName: __ZNKSt3__16vectorI17SoftwareArchitectNS_9allocatorIS1_EEE11__recommendB7v160006Em, symObjAddr: 0x5B58, symBinAddr: 0x10000FCD8, symSize: 0xB4 }
  - { offsetInCU: 0xD9CB, offset: 0x2B00E, size: 0x8, addend: 0x0, symName: __ZNSt3__114__split_bufferI17SoftwareArchitectRNS_9allocatorIS1_EEEC1EmmS4_, symObjAddr: 0x5C34, symBinAddr: 0x10000FD8C, symSize: 0x44 }
  - { offsetInCU: 0xDA20, offset: 0x2B063, size: 0x8, addend: 0x0, symName: __ZNSt3__114__split_bufferI17SoftwareArchitectRNS_9allocatorIS1_EEED1Ev, symObjAddr: 0x5D90, symBinAddr: 0x10000FEE8, symSize: 0x2C }
  - { offsetInCU: 0xDA4A, offset: 0x2B08D, size: 0x8, addend: 0x0, symName: __ZNKSt3__16vectorI17SoftwareArchitectNS_9allocatorIS1_EEE8max_sizeEv, symObjAddr: 0x5DBC, symBinAddr: 0x10000FF14, symSize: 0x74 }
  - { offsetInCU: 0xDA71, offset: 0x2B0B4, size: 0x8, addend: 0x0, symName: __ZNKSt3__16vectorI17SoftwareArchitectNS_9allocatorIS1_EEE20__throw_length_errorB7v160006Ev, symObjAddr: 0x5E30, symBinAddr: 0x10000FF88, symSize: 0x1C }
  - { offsetInCU: 0xDAA0, offset: 0x2B0E3, size: 0x8, addend: 0x0, symName: __ZNSt3__116allocator_traitsINS_9allocatorI17SoftwareArchitectEEE8max_sizeB7v160006IS3_vEEmRKS3_, symObjAddr: 0x5E8C, symBinAddr: 0x10000FFA4, symSize: 0x24 }
  - { offsetInCU: 0xDACE, offset: 0x2B111, size: 0x8, addend: 0x0, symName: __ZNKSt3__16vectorI17SoftwareArchitectNS_9allocatorIS1_EEE7__allocB7v160006Ev, symObjAddr: 0x5EB0, symBinAddr: 0x10000FFC8, symSize: 0x28 }
  - { offsetInCU: 0xDAF3, offset: 0x2B136, size: 0x8, addend: 0x0, symName: __ZNKSt3__19allocatorI17SoftwareArchitectE8max_sizeB7v160006Ev, symObjAddr: 0x5ED8, symBinAddr: 0x10000FFF0, symSize: 0x20 }
  - { offsetInCU: 0xDB18, offset: 0x2B15B, size: 0x8, addend: 0x0, symName: __ZNKSt3__117__compressed_pairIP17SoftwareArchitectNS_9allocatorIS1_EEE6secondB7v160006Ev, symObjAddr: 0x5EF8, symBinAddr: 0x100010010, symSize: 0x24 }
  - { offsetInCU: 0xDB3D, offset: 0x2B180, size: 0x8, addend: 0x0, symName: __ZNKSt3__122__compressed_pair_elemINS_9allocatorI17SoftwareArchitectEELi1ELb1EE5__getB7v160006Ev, symObjAddr: 0x5F1C, symBinAddr: 0x100010034, symSize: 0x14 }
  - { offsetInCU: 0xDB62, offset: 0x2B1A5, size: 0x8, addend: 0x0, symName: __ZNSt3__114__split_bufferI17SoftwareArchitectRNS_9allocatorIS1_EEEC2EmmS4_, symObjAddr: 0x5F90, symBinAddr: 0x100010048, symSize: 0xE0 }
  - { offsetInCU: 0xDBD5, offset: 0x2B218, size: 0x8, addend: 0x0, symName: __ZNSt3__117__compressed_pairIP17SoftwareArchitectRNS_9allocatorIS1_EEEC1B7v160006IDnS5_EEOT_OT0_, symObjAddr: 0x6070, symBinAddr: 0x100010128, symSize: 0x3C }
  - { offsetInCU: 0xDC2B, offset: 0x2B26E, size: 0x8, addend: 0x0, symName: __ZNSt3__114__split_bufferI17SoftwareArchitectRNS_9allocatorIS1_EEE7__allocB7v160006Ev, symObjAddr: 0x60EC, symBinAddr: 0x1000101A4, symSize: 0x28 }
  - { offsetInCU: 0xDC50, offset: 0x2B293, size: 0x8, addend: 0x0, symName: __ZNSt3__114__split_bufferI17SoftwareArchitectRNS_9allocatorIS1_EEE9__end_capB7v160006Ev, symObjAddr: 0x6114, symBinAddr: 0x1000101CC, symSize: 0x28 }
  - { offsetInCU: 0xDC75, offset: 0x2B2B8, size: 0x8, addend: 0x0, symName: __ZNSt3__117__compressed_pairIP17SoftwareArchitectRNS_9allocatorIS1_EEEC2B7v160006IDnS5_EEOT_OT0_, symObjAddr: 0x613C, symBinAddr: 0x1000101F4, symSize: 0x48 }
  - { offsetInCU: 0xDCCB, offset: 0x2B30E, size: 0x8, addend: 0x0, symName: __ZNSt3__122__compressed_pair_elemIRNS_9allocatorI17SoftwareArchitectEELi1ELb0EEC2B7v160006IS4_vEEOT_, symObjAddr: 0x61A0, symBinAddr: 0x10001023C, symSize: 0x20 }
  - { offsetInCU: 0xDD0C, offset: 0x2B34F, size: 0x8, addend: 0x0, symName: __ZNSt3__19allocatorI17SoftwareArchitectE8allocateB7v160006Em, symObjAddr: 0x61C0, symBinAddr: 0x10001025C, symSize: 0x8C }
  - { offsetInCU: 0xDD3F, offset: 0x2B382, size: 0x8, addend: 0x0, symName: __ZNSt3__117__compressed_pairIP17SoftwareArchitectRNS_9allocatorIS1_EEE6secondB7v160006Ev, symObjAddr: 0x624C, symBinAddr: 0x1000102E8, symSize: 0x28 }
  - { offsetInCU: 0xDD64, offset: 0x2B3A7, size: 0x8, addend: 0x0, symName: __ZNSt3__122__compressed_pair_elemIRNS_9allocatorI17SoftwareArchitectEELi1ELb0EE5__getB7v160006Ev, symObjAddr: 0x6274, symBinAddr: 0x100010310, symSize: 0x18 }
  - { offsetInCU: 0xDD89, offset: 0x2B3CC, size: 0x8, addend: 0x0, symName: __ZNSt3__117__compressed_pairIP17SoftwareArchitectRNS_9allocatorIS1_EEE5firstB7v160006Ev, symObjAddr: 0x628C, symBinAddr: 0x100010328, symSize: 0x24 }
  - { offsetInCU: 0xDDAE, offset: 0x2B3F1, size: 0x8, addend: 0x0, symName: __ZNSt3__116reverse_iteratorIP17SoftwareArchitectEC1B7v160006ES2_, symObjAddr: 0x64B8, symBinAddr: 0x100010480, symSize: 0x34 }
  - { offsetInCU: 0xDDE4, offset: 0x2B427, size: 0x8, addend: 0x0, symName: __ZNKSt3__116reverse_iteratorIP17SoftwareArchitectE4baseB7v160006Ev, symObjAddr: 0x64EC, symBinAddr: 0x1000104B4, symSize: 0x18 }
  - { offsetInCU: 0xDE09, offset: 0x2B44C, size: 0x8, addend: 0x0, symName: __ZNKSt3__16vectorI17SoftwareArchitectNS_9allocatorIS1_EEE14__annotate_newB7v160006Em, symObjAddr: 0x6540, symBinAddr: 0x100010508, symSize: 0xC8 }
  - { offsetInCU: 0xDE3D, offset: 0x2B480, size: 0x8, addend: 0x0, symName: __ZNSt3__129_AllocatorDestroyRangeReverseINS_9allocatorI17SoftwareArchitectEENS_16reverse_iteratorIPS2_EEEC1B7v160006ERS3_RS6_S9_, symObjAddr: 0x66AC, symBinAddr: 0x10001062C, symSize: 0x44 }
  - { offsetInCU: 0xDE92, offset: 0x2B4D5, size: 0x8, addend: 0x0, symName: __ZNKSt3__116reverse_iteratorIP17SoftwareArchitectEdeB7v160006Ev, symObjAddr: 0x675C, symBinAddr: 0x1000106DC, symSize: 0x28 }
  - { offsetInCU: 0xDEC5, offset: 0x2B508, size: 0x8, addend: 0x0, symName: __ZNSt3__116reverse_iteratorIP17SoftwareArchitectEppB7v160006Ev, symObjAddr: 0x6784, symBinAddr: 0x100010704, symSize: 0x20 }
  - { offsetInCU: 0xDEEA, offset: 0x2B52D, size: 0x8, addend: 0x0, symName: __ZNSt3__128__exception_guard_exceptionsINS_29_AllocatorDestroyRangeReverseINS_9allocatorI17SoftwareArchitectEENS_16reverse_iteratorIPS3_EEEEE10__completeB7v160006Ev, symObjAddr: 0x67A4, symBinAddr: 0x100010724, symSize: 0x1C }
  - { offsetInCU: 0xDF0F, offset: 0x2B552, size: 0x8, addend: 0x0, symName: __ZNSt3__128__exception_guard_exceptionsINS_29_AllocatorDestroyRangeReverseINS_9allocatorI17SoftwareArchitectEENS_16reverse_iteratorIPS3_EEEEED1B7v160006Ev, symObjAddr: 0x67C0, symBinAddr: 0x100010740, symSize: 0x2C }
  - { offsetInCU: 0xDF37, offset: 0x2B57A, size: 0x8, addend: 0x0, symName: __ZNSt3__128__exception_guard_exceptionsINS_29_AllocatorDestroyRangeReverseINS_9allocatorI17SoftwareArchitectEENS_16reverse_iteratorIPS3_EEEEEC1B7v160006ES8_, symObjAddr: 0x67EC, symBinAddr: 0x10001076C, symSize: 0x34 }
  - { offsetInCU: 0xDF6E, offset: 0x2B5B1, size: 0x8, addend: 0x0, symName: __ZNSt3__128__exception_guard_exceptionsINS_29_AllocatorDestroyRangeReverseINS_9allocatorI17SoftwareArchitectEENS_16reverse_iteratorIPS3_EEEEEC2B7v160006ES8_, symObjAddr: 0x6820, symBinAddr: 0x1000107A0, symSize: 0x30 }
  - { offsetInCU: 0xDFA6, offset: 0x2B5E9, size: 0x8, addend: 0x0, symName: __ZNSt3__129_AllocatorDestroyRangeReverseINS_9allocatorI17SoftwareArchitectEENS_16reverse_iteratorIPS2_EEEC2B7v160006ERS3_RS6_S9_, symObjAddr: 0x6850, symBinAddr: 0x1000107D0, symSize: 0x38 }
  - { offsetInCU: 0xE001, offset: 0x2B644, size: 0x8, addend: 0x0, symName: __ZNSt3__119__to_address_helperINS_16reverse_iteratorIP17SoftwareArchitectEEvE6__callB7v160006ERKS4_, symObjAddr: 0x6888, symBinAddr: 0x100010808, symSize: 0x4C }
  - { offsetInCU: 0xE024, offset: 0x2B667, size: 0x8, addend: 0x0, symName: __ZNKSt3__116reverse_iteratorIP17SoftwareArchitectEptB7v160006Ev, symObjAddr: 0x68D4, symBinAddr: 0x100010854, symSize: 0x24 }
  - { offsetInCU: 0xE049, offset: 0x2B68C, size: 0x8, addend: 0x0, symName: __ZNSt3__128__exception_guard_exceptionsINS_29_AllocatorDestroyRangeReverseINS_9allocatorI17SoftwareArchitectEENS_16reverse_iteratorIPS3_EEEEED2B7v160006Ev, symObjAddr: 0x68F8, symBinAddr: 0x100010878, symSize: 0x48 }
  - { offsetInCU: 0xE071, offset: 0x2B6B4, size: 0x8, addend: 0x0, symName: __ZNKSt3__129_AllocatorDestroyRangeReverseINS_9allocatorI17SoftwareArchitectEENS_16reverse_iteratorIPS2_EEEclB7v160006Ev, symObjAddr: 0x6940, symBinAddr: 0x1000108C0, symSize: 0xB4 }
  - { offsetInCU: 0xE097, offset: 0x2B6DA, size: 0x8, addend: 0x0, symName: __ZNSt3__116reverse_iteratorINS0_IP17SoftwareArchitectEEEC1B7v160006ES3_, symObjAddr: 0x6A64, symBinAddr: 0x1000109E4, symSize: 0x3C }
  - { offsetInCU: 0xE0CD, offset: 0x2B710, size: 0x8, addend: 0x0, symName: __ZNSt3__116reverse_iteratorINS0_IP17SoftwareArchitectEEEppB7v160006Ev, symObjAddr: 0x6B50, symBinAddr: 0x100010AA4, symSize: 0x30 }
  - { offsetInCU: 0xE0F2, offset: 0x2B735, size: 0x8, addend: 0x0, symName: __ZNKSt3__116reverse_iteratorINS0_IP17SoftwareArchitectEEE4baseB7v160006Ev, symObjAddr: 0x6B80, symBinAddr: 0x100010AD4, symSize: 0x24 }
  - { offsetInCU: 0xE11C, offset: 0x2B75F, size: 0x8, addend: 0x0, symName: __ZNSt3__119__to_address_helperINS_16reverse_iteratorINS1_IP17SoftwareArchitectEEEEvE6__callB7v160006ERKS5_, symObjAddr: 0x6BCC, symBinAddr: 0x100010AF8, symSize: 0x4C }
  - { offsetInCU: 0xE13F, offset: 0x2B782, size: 0x8, addend: 0x0, symName: __ZNKSt3__116reverse_iteratorINS0_IP17SoftwareArchitectEEEptB7v160006Ev, symObjAddr: 0x6C18, symBinAddr: 0x100010B44, symSize: 0x24 }
  - { offsetInCU: 0xE164, offset: 0x2B7A7, size: 0x8, addend: 0x0, symName: __ZNKSt3__116reverse_iteratorINS0_IP17SoftwareArchitectEEEdeB7v160006Ev, symObjAddr: 0x6C3C, symBinAddr: 0x100010B68, symSize: 0x34 }
  - { offsetInCU: 0xE197, offset: 0x2B7DA, size: 0x8, addend: 0x0, symName: __ZNSt3__116reverse_iteratorIP17SoftwareArchitectEmmB7v160006Ev, symObjAddr: 0x6C70, symBinAddr: 0x100010B9C, symSize: 0x20 }
  - { offsetInCU: 0xE1BC, offset: 0x2B7FF, size: 0x8, addend: 0x0, symName: __ZNSt3__116reverse_iteratorINS0_IP17SoftwareArchitectEEEC2B7v160006ES3_, symObjAddr: 0x6C90, symBinAddr: 0x100010BBC, symSize: 0x2C }
  - { offsetInCU: 0xE1F3, offset: 0x2B836, size: 0x8, addend: 0x0, symName: __ZNSt3__116reverse_iteratorIP17SoftwareArchitectEC2B7v160006ES2_, symObjAddr: 0x6CBC, symBinAddr: 0x100010BE8, symSize: 0x28 }
  - { offsetInCU: 0xE22A, offset: 0x2B86D, size: 0x8, addend: 0x0, symName: __ZNSt3__114__split_bufferI17SoftwareArchitectRNS_9allocatorIS1_EEED2Ev, symObjAddr: 0x6CE4, symBinAddr: 0x100010C10, symSize: 0x80 }
  - { offsetInCU: 0xE255, offset: 0x2B898, size: 0x8, addend: 0x0, symName: __ZNSt3__114__split_bufferI17SoftwareArchitectRNS_9allocatorIS1_EEE5clearB7v160006Ev, symObjAddr: 0x6D64, symBinAddr: 0x100010C90, symSize: 0x28 }
  - { offsetInCU: 0xE27A, offset: 0x2B8BD, size: 0x8, addend: 0x0, symName: __ZNKSt3__114__split_bufferI17SoftwareArchitectRNS_9allocatorIS1_EEE8capacityB7v160006Ev, symObjAddr: 0x6DC0, symBinAddr: 0x100010CB8, symSize: 0x40 }
  - { offsetInCU: 0xE29F, offset: 0x2B8E2, size: 0x8, addend: 0x0, symName: __ZNSt3__114__split_bufferI17SoftwareArchitectRNS_9allocatorIS1_EEE17__destruct_at_endB7v160006EPS1_, symObjAddr: 0x6E00, symBinAddr: 0x100010CF8, symSize: 0x2C }
  - { offsetInCU: 0xE2D1, offset: 0x2B914, size: 0x8, addend: 0x0, symName: __ZNSt3__114__split_bufferI17SoftwareArchitectRNS_9allocatorIS1_EEE17__destruct_at_endB7v160006EPS1_NS_17integral_constantIbLb0EEE, symObjAddr: 0x6E2C, symBinAddr: 0x100010D24, symSize: 0x94 }
  - { offsetInCU: 0xE311, offset: 0x2B954, size: 0x8, addend: 0x0, symName: __ZNKSt3__114__split_bufferI17SoftwareArchitectRNS_9allocatorIS1_EEE9__end_capB7v160006Ev, symObjAddr: 0x6F34, symBinAddr: 0x100010DB8, symSize: 0x28 }
  - { offsetInCU: 0xE336, offset: 0x2B979, size: 0x8, addend: 0x0, symName: __ZNKSt3__117__compressed_pairIP17SoftwareArchitectRNS_9allocatorIS1_EEE5firstB7v160006Ev, symObjAddr: 0x6F5C, symBinAddr: 0x100010DE0, symSize: 0x24 }
  - { offsetInCU: 0xE379, offset: 0x2B9BC, size: 0x8, addend: 0x0, symName: __ZNKSt3__16vectorIP8EmployeeNS_9allocatorIS2_EEE20__throw_out_of_rangeB7v160006Ev, symObjAddr: 0x7980, symBinAddr: 0x100010E04, symSize: 0x1C }
  - { offsetInCU: 0x47AA, offset: 0x30243, size: 0x8, addend: 0x0, symName: __ZN10ProgrammerC2Ev, symObjAddr: 0x0, symBinAddr: 0x100010E20, symSize: 0x10C }
  - { offsetInCU: 0x47D4, offset: 0x3026D, size: 0x8, addend: 0x0, symName: __ZN10ProgrammerC1Ev, symObjAddr: 0x220, symBinAddr: 0x100010F2C, symSize: 0x2C }
  - { offsetInCU: 0x47FE, offset: 0x30297, size: 0x8, addend: 0x0, symName: __ZN10ProgrammerC2ENSt3__112basic_stringIcNS0_11char_traitsIcEENS0_9allocatorIcEEEElS6_diS6_iS6_, symObjAddr: 0x24C, symBinAddr: 0x100010F58, symSize: 0x1FC }
  - { offsetInCU: 0x489E, offset: 0x30337, size: 0x8, addend: 0x0, symName: __ZN10ProgrammerC1ENSt3__112basic_stringIcNS0_11char_traitsIcEENS0_9allocatorIcEEEElS6_diS6_iS6_, symObjAddr: 0x448, symBinAddr: 0x100011154, symSize: 0x6C }
  - { offsetInCU: 0x493C, offset: 0x303D5, size: 0x8, addend: 0x0, symName: __ZNK10Programmer17getSupervisorNameEv, symObjAddr: 0x4B4, symBinAddr: 0x1000111C0, symSize: 0x3C }
  - { offsetInCU: 0x4963, offset: 0x303FC, size: 0x8, addend: 0x0, symName: __ZNK10Programmer12getProjectIDEv, symObjAddr: 0x4F0, symBinAddr: 0x1000111FC, symSize: 0x18 }
  - { offsetInCU: 0x498A, offset: 0x30423, size: 0x8, addend: 0x0, symName: __ZNK10Programmer15getProgLanguageEv, symObjAddr: 0x508, symBinAddr: 0x100011214, symSize: 0x3C }
  - { offsetInCU: 0x49B1, offset: 0x3044A, size: 0x8, addend: 0x0, symName: __ZN10Programmer5printEv, symObjAddr: 0x544, symBinAddr: 0x100011250, symSize: 0x3A8 }
  - { offsetInCU: 0x47AA, offset: 0x34C25, size: 0x8, addend: 0x0, symName: __ZN17SoftwareArchitectC2Ev, symObjAddr: 0x0, symBinAddr: 0x1000115F8, symSize: 0xC4 }
  - { offsetInCU: 0x47D4, offset: 0x34C4F, size: 0x8, addend: 0x0, symName: __ZN17SoftwareArchitectC1Ev, symObjAddr: 0x1D8, symBinAddr: 0x1000116BC, symSize: 0x2C }
  - { offsetInCU: 0x47FE, offset: 0x34C79, size: 0x8, addend: 0x0, symName: __ZN17SoftwareArchitectC2ENSt3__112basic_stringIcNS0_11char_traitsIcEENS0_9allocatorIcEEEElS6_diS6_ii, symObjAddr: 0x204, symBinAddr: 0x1000116E8, symSize: 0x1D4 }
  - { offsetInCU: 0x489D, offset: 0x34D18, size: 0x8, addend: 0x0, symName: __ZN17SoftwareArchitectC1ENSt3__112basic_stringIcNS0_11char_traitsIcEENS0_9allocatorIcEEEElS6_diS6_ii, symObjAddr: 0x3D8, symBinAddr: 0x1000118BC, symSize: 0x6C }
  - { offsetInCU: 0x493A, offset: 0x34DB5, size: 0x8, addend: 0x0, symName: __ZNK17SoftwareArchitect17getSupervisorNameEv, symObjAddr: 0x444, symBinAddr: 0x100011928, symSize: 0x3C }
  - { offsetInCU: 0x4961, offset: 0x34DDC, size: 0x8, addend: 0x0, symName: __ZNK17SoftwareArchitect12getProjectIDEv, symObjAddr: 0x480, symBinAddr: 0x100011964, symSize: 0x18 }
  - { offsetInCU: 0x4988, offset: 0x34E03, size: 0x8, addend: 0x0, symName: __ZNK17SoftwareArchitect18getExperienceYearsEv, symObjAddr: 0x498, symBinAddr: 0x10001197C, symSize: 0x18 }
  - { offsetInCU: 0x49AF, offset: 0x34E2A, size: 0x8, addend: 0x0, symName: __ZN17SoftwareArchitect5printEv, symObjAddr: 0x4B0, symBinAddr: 0x100011994, symSize: 0x374 }
...
